
kernel-qemu:     file format elf64-littleriscv


Disassembly of section .text:

0000000080200000 <_entry>:
    80200000:	00150293          	addi	t0,a0,1
    80200004:	02ba                	slli	t0,t0,0xe
    80200006:	0000e117          	auipc	sp,0xe
    8020000a:	10213103          	ld	sp,258(sp) # 8020e108 <_GLOBAL_OFFSET_TABLE_+0x58>
    8020000e:	9116                	add	sp,sp,t0
    80200010:	1e3000ef          	jal	ra,802009f2 <main>

0000000080200014 <loop>:
    80200014:	a001                	j	80200014 <loop>

0000000080200016 <printint>:
    }
}

static void
printint(int xx, int base, int sign)
{
    80200016:	7179                	addi	sp,sp,-48
    80200018:	f406                	sd	ra,40(sp)
    8020001a:	f022                	sd	s0,32(sp)
    8020001c:	ec26                	sd	s1,24(sp)
    8020001e:	e84a                	sd	s2,16(sp)
    80200020:	1800                	addi	s0,sp,48
  char buf[16];
  int i;
  uint x;

  if(sign && (sign = xx < 0))
    80200022:	c219                	beqz	a2,80200028 <printint+0x12>
    80200024:	08054563          	bltz	a0,802000ae <printint+0x98>
    x = -xx;
  else
    x = xx;
    80200028:	2501                	sext.w	a0,a0
    8020002a:	4881                	li	a7,0

  i = 0;
    8020002c:	fd040913          	addi	s2,s0,-48
    x = xx;
    80200030:	86ca                	mv	a3,s2
  i = 0;
    80200032:	4701                	li	a4,0
  do {
    buf[i++] = digits[x % base];
    80200034:	2581                	sext.w	a1,a1
    80200036:	0000a617          	auipc	a2,0xa
    8020003a:	34a60613          	addi	a2,a2,842 # 8020a380 <digits>
    8020003e:	883a                	mv	a6,a4
    80200040:	2705                	addiw	a4,a4,1
    80200042:	02b577bb          	remuw	a5,a0,a1
    80200046:	1782                	slli	a5,a5,0x20
    80200048:	9381                	srli	a5,a5,0x20
    8020004a:	97b2                	add	a5,a5,a2
    8020004c:	0007c783          	lbu	a5,0(a5)
    80200050:	00f68023          	sb	a5,0(a3)
  } while((x /= base) != 0);
    80200054:	0005079b          	sext.w	a5,a0
    80200058:	02b5553b          	divuw	a0,a0,a1
    8020005c:	0685                	addi	a3,a3,1
    8020005e:	feb7f0e3          	bgeu	a5,a1,8020003e <printint+0x28>

  if(sign)
    80200062:	00088b63          	beqz	a7,80200078 <printint+0x62>
    buf[i++] = '-';
    80200066:	fe040793          	addi	a5,s0,-32
    8020006a:	973e                	add	a4,a4,a5
    8020006c:	02d00793          	li	a5,45
    80200070:	fef70823          	sb	a5,-16(a4)
    80200074:	0028071b          	addiw	a4,a6,2

  while(--i >= 0)
    80200078:	02e05563          	blez	a4,802000a2 <printint+0x8c>
    8020007c:	fd040493          	addi	s1,s0,-48
    80200080:	94ba                	add	s1,s1,a4
    80200082:	197d                	addi	s2,s2,-1
    80200084:	993a                	add	s2,s2,a4
    80200086:	377d                	addiw	a4,a4,-1
    80200088:	1702                	slli	a4,a4,0x20
    8020008a:	9301                	srli	a4,a4,0x20
    8020008c:	40e90933          	sub	s2,s2,a4
    consputc(buf[i]);
    80200090:	fff4c503          	lbu	a0,-1(s1)
    80200094:	00008097          	auipc	ra,0x8
    80200098:	042080e7          	jalr	66(ra) # 802080d6 <consputc>
  while(--i >= 0)
    8020009c:	14fd                	addi	s1,s1,-1
    8020009e:	ff2499e3          	bne	s1,s2,80200090 <printint+0x7a>
}
    802000a2:	70a2                	ld	ra,40(sp)
    802000a4:	7402                	ld	s0,32(sp)
    802000a6:	64e2                	ld	s1,24(sp)
    802000a8:	6942                	ld	s2,16(sp)
    802000aa:	6145                	addi	sp,sp,48
    802000ac:	8082                	ret
    x = -xx;
    802000ae:	40a0053b          	negw	a0,a0
  if(sign && (sign = xx < 0))
    802000b2:	4885                	li	a7,1
    x = -xx;
    802000b4:	bfa5                	j	8020002c <printint+0x16>

00000000802000b6 <printstring>:
void printstring(const char* s) {
    802000b6:	1101                	addi	sp,sp,-32
    802000b8:	ec06                	sd	ra,24(sp)
    802000ba:	e822                	sd	s0,16(sp)
    802000bc:	e426                	sd	s1,8(sp)
    802000be:	1000                	addi	s0,sp,32
    802000c0:	84aa                	mv	s1,a0
    while (*s)
    802000c2:	00054503          	lbu	a0,0(a0)
    802000c6:	c909                	beqz	a0,802000d8 <printstring+0x22>
        consputc(*s++);
    802000c8:	0485                	addi	s1,s1,1
    802000ca:	00008097          	auipc	ra,0x8
    802000ce:	00c080e7          	jalr	12(ra) # 802080d6 <consputc>
    while (*s)
    802000d2:	0004c503          	lbu	a0,0(s1)
    802000d6:	f96d                	bnez	a0,802000c8 <printstring+0x12>
}
    802000d8:	60e2                	ld	ra,24(sp)
    802000da:	6442                	ld	s0,16(sp)
    802000dc:	64a2                	ld	s1,8(sp)
    802000de:	6105                	addi	sp,sp,32
    802000e0:	8082                	ret

00000000802000e2 <backtrace>:
  for(;;)
    ;
}

void backtrace()
{
    802000e2:	7179                	addi	sp,sp,-48
    802000e4:	f406                	sd	ra,40(sp)
    802000e6:	f022                	sd	s0,32(sp)
    802000e8:	ec26                	sd	s1,24(sp)
    802000ea:	e84a                	sd	s2,16(sp)
    802000ec:	e44e                	sd	s3,8(sp)
    802000ee:	1800                	addi	s0,sp,48

static inline uint64
r_fp()
{
  uint64 x;
  asm volatile("mv %0, s0" : "=r" (x) );
    802000f0:	8922                	mv	s2,s0
  uint64 *fp = (uint64 *)r_fp();
    802000f2:	84ca                	mv	s1,s2
  uint64 *bottom = (uint64 *)PGROUNDUP((uint64)fp);
    802000f4:	6785                	lui	a5,0x1
    802000f6:	17fd                	addi	a5,a5,-1
    802000f8:	993e                	add	s2,s2,a5
    802000fa:	77fd                	lui	a5,0xfffff
    802000fc:	00f97933          	and	s2,s2,a5
  printf("backtrace:\n");
    80200100:	0000a517          	auipc	a0,0xa
    80200104:	f0050513          	addi	a0,a0,-256 # 8020a000 <etext>
    80200108:	00000097          	auipc	ra,0x0
    8020010c:	084080e7          	jalr	132(ra) # 8020018c <printf>
  while (fp < bottom) {
    80200110:	0324f263          	bgeu	s1,s2,80200134 <backtrace+0x52>
    uint64 ra = *(fp - 1);
    printf("%p\n", ra - 4);
    80200114:	0000a997          	auipc	s3,0xa
    80200118:	4d498993          	addi	s3,s3,1236 # 8020a5e8 <digits+0x268>
    8020011c:	ff84b583          	ld	a1,-8(s1)
    80200120:	15f1                	addi	a1,a1,-4
    80200122:	854e                	mv	a0,s3
    80200124:	00000097          	auipc	ra,0x0
    80200128:	068080e7          	jalr	104(ra) # 8020018c <printf>
    fp = (uint64 *)*(fp - 2);
    8020012c:	ff04b483          	ld	s1,-16(s1)
  while (fp < bottom) {
    80200130:	ff24e6e3          	bltu	s1,s2,8020011c <backtrace+0x3a>
  }
}
    80200134:	70a2                	ld	ra,40(sp)
    80200136:	7402                	ld	s0,32(sp)
    80200138:	64e2                	ld	s1,24(sp)
    8020013a:	6942                	ld	s2,16(sp)
    8020013c:	69a2                	ld	s3,8(sp)
    8020013e:	6145                	addi	sp,sp,48
    80200140:	8082                	ret

0000000080200142 <panic>:
{
    80200142:	1101                	addi	sp,sp,-32
    80200144:	ec06                	sd	ra,24(sp)
    80200146:	e822                	sd	s0,16(sp)
    80200148:	e426                	sd	s1,8(sp)
    8020014a:	1000                	addi	s0,sp,32
    8020014c:	84aa                	mv	s1,a0
  printf("panic: ");
    8020014e:	0000a517          	auipc	a0,0xa
    80200152:	ec250513          	addi	a0,a0,-318 # 8020a010 <etext+0x10>
    80200156:	00000097          	auipc	ra,0x0
    8020015a:	036080e7          	jalr	54(ra) # 8020018c <printf>
  printf(s);
    8020015e:	8526                	mv	a0,s1
    80200160:	00000097          	auipc	ra,0x0
    80200164:	02c080e7          	jalr	44(ra) # 8020018c <printf>
  printf("\n");
    80200168:	0000a517          	auipc	a0,0xa
    8020016c:	f7050513          	addi	a0,a0,-144 # 8020a0d8 <etext+0xd8>
    80200170:	00000097          	auipc	ra,0x0
    80200174:	01c080e7          	jalr	28(ra) # 8020018c <printf>
  backtrace();
    80200178:	00000097          	auipc	ra,0x0
    8020017c:	f6a080e7          	jalr	-150(ra) # 802000e2 <backtrace>
  panicked = 1; // freeze uart output from other CPUs
    80200180:	4785                	li	a5,1
    80200182:	00017717          	auipc	a4,0x17
    80200186:	e6f72f23          	sw	a5,-386(a4) # 80217000 <panicked>
  for(;;)
    8020018a:	a001                	j	8020018a <panic+0x48>

000000008020018c <printf>:
{
    8020018c:	7131                	addi	sp,sp,-192
    8020018e:	fc86                	sd	ra,120(sp)
    80200190:	f8a2                	sd	s0,112(sp)
    80200192:	f4a6                	sd	s1,104(sp)
    80200194:	f0ca                	sd	s2,96(sp)
    80200196:	ecce                	sd	s3,88(sp)
    80200198:	e8d2                	sd	s4,80(sp)
    8020019a:	e4d6                	sd	s5,72(sp)
    8020019c:	e0da                	sd	s6,64(sp)
    8020019e:	fc5e                	sd	s7,56(sp)
    802001a0:	f862                	sd	s8,48(sp)
    802001a2:	f466                	sd	s9,40(sp)
    802001a4:	f06a                	sd	s10,32(sp)
    802001a6:	ec6e                	sd	s11,24(sp)
    802001a8:	0100                	addi	s0,sp,128
    802001aa:	8a2a                	mv	s4,a0
    802001ac:	e40c                	sd	a1,8(s0)
    802001ae:	e810                	sd	a2,16(s0)
    802001b0:	ec14                	sd	a3,24(s0)
    802001b2:	f018                	sd	a4,32(s0)
    802001b4:	f41c                	sd	a5,40(s0)
    802001b6:	03043823          	sd	a6,48(s0)
    802001ba:	03143c23          	sd	a7,56(s0)
  locking = pr.locking;
    802001be:	00017d97          	auipc	s11,0x17
    802001c2:	e62dad83          	lw	s11,-414(s11) # 80217020 <pr+0x18>
  if(locking)
    802001c6:	020d9b63          	bnez	s11,802001fc <printf+0x70>
  if (fmt == 0)
    802001ca:	040a0263          	beqz	s4,8020020e <printf+0x82>
  va_start(ap, fmt);
    802001ce:	00840793          	addi	a5,s0,8
    802001d2:	f8f43423          	sd	a5,-120(s0)
  for(i = 0; (c = fmt[i] & 0xff) != 0; i++){
    802001d6:	000a4503          	lbu	a0,0(s4)
    802001da:	16050263          	beqz	a0,8020033e <printf+0x1b2>
    802001de:	4481                	li	s1,0
    if(c != '%'){
    802001e0:	02500a93          	li	s5,37
    switch(c){
    802001e4:	07000b13          	li	s6,112
  consputc('x');
    802001e8:	4d41                	li	s10,16
    consputc(digits[x >> (sizeof(uint64) * 8 - 4)]);
    802001ea:	0000ab97          	auipc	s7,0xa
    802001ee:	196b8b93          	addi	s7,s7,406 # 8020a380 <digits>
    switch(c){
    802001f2:	07300c93          	li	s9,115
    802001f6:	06400c13          	li	s8,100
    802001fa:	a82d                	j	80200234 <printf+0xa8>
    acquire(&pr.lock);
    802001fc:	00017517          	auipc	a0,0x17
    80200200:	e0c50513          	addi	a0,a0,-500 # 80217008 <pr>
    80200204:	00000097          	auipc	ra,0x0
    80200208:	4c4080e7          	jalr	1220(ra) # 802006c8 <acquire>
    8020020c:	bf7d                	j	802001ca <printf+0x3e>
    panic("null fmt");
    8020020e:	0000a517          	auipc	a0,0xa
    80200212:	e1250513          	addi	a0,a0,-494 # 8020a020 <etext+0x20>
    80200216:	00000097          	auipc	ra,0x0
    8020021a:	f2c080e7          	jalr	-212(ra) # 80200142 <panic>
      consputc(c);
    8020021e:	00008097          	auipc	ra,0x8
    80200222:	eb8080e7          	jalr	-328(ra) # 802080d6 <consputc>
  for(i = 0; (c = fmt[i] & 0xff) != 0; i++){
    80200226:	2485                	addiw	s1,s1,1
    80200228:	009a07b3          	add	a5,s4,s1
    8020022c:	0007c503          	lbu	a0,0(a5) # fffffffffffff000 <kernel_end+0xffffffff7fdc0000>
    80200230:	10050763          	beqz	a0,8020033e <printf+0x1b2>
    if(c != '%'){
    80200234:	ff5515e3          	bne	a0,s5,8020021e <printf+0x92>
    c = fmt[++i] & 0xff;
    80200238:	2485                	addiw	s1,s1,1
    8020023a:	009a07b3          	add	a5,s4,s1
    8020023e:	0007c783          	lbu	a5,0(a5)
    80200242:	0007891b          	sext.w	s2,a5
    if(c == 0)
    80200246:	cfe5                	beqz	a5,8020033e <printf+0x1b2>
    switch(c){
    80200248:	05678a63          	beq	a5,s6,8020029c <printf+0x110>
    8020024c:	02fb7663          	bgeu	s6,a5,80200278 <printf+0xec>
    80200250:	09978963          	beq	a5,s9,802002e2 <printf+0x156>
    80200254:	07800713          	li	a4,120
    80200258:	0ce79863          	bne	a5,a4,80200328 <printf+0x19c>
      printint(va_arg(ap, int), 16, 1);
    8020025c:	f8843783          	ld	a5,-120(s0)
    80200260:	00878713          	addi	a4,a5,8
    80200264:	f8e43423          	sd	a4,-120(s0)
    80200268:	4605                	li	a2,1
    8020026a:	85ea                	mv	a1,s10
    8020026c:	4388                	lw	a0,0(a5)
    8020026e:	00000097          	auipc	ra,0x0
    80200272:	da8080e7          	jalr	-600(ra) # 80200016 <printint>
      break;
    80200276:	bf45                	j	80200226 <printf+0x9a>
    switch(c){
    80200278:	0b578263          	beq	a5,s5,8020031c <printf+0x190>
    8020027c:	0b879663          	bne	a5,s8,80200328 <printf+0x19c>
      printint(va_arg(ap, int), 10, 1);
    80200280:	f8843783          	ld	a5,-120(s0)
    80200284:	00878713          	addi	a4,a5,8
    80200288:	f8e43423          	sd	a4,-120(s0)
    8020028c:	4605                	li	a2,1
    8020028e:	45a9                	li	a1,10
    80200290:	4388                	lw	a0,0(a5)
    80200292:	00000097          	auipc	ra,0x0
    80200296:	d84080e7          	jalr	-636(ra) # 80200016 <printint>
      break;
    8020029a:	b771                	j	80200226 <printf+0x9a>
      printptr(va_arg(ap, uint64));
    8020029c:	f8843783          	ld	a5,-120(s0)
    802002a0:	00878713          	addi	a4,a5,8
    802002a4:	f8e43423          	sd	a4,-120(s0)
    802002a8:	0007b983          	ld	s3,0(a5)
  consputc('0');
    802002ac:	03000513          	li	a0,48
    802002b0:	00008097          	auipc	ra,0x8
    802002b4:	e26080e7          	jalr	-474(ra) # 802080d6 <consputc>
  consputc('x');
    802002b8:	07800513          	li	a0,120
    802002bc:	00008097          	auipc	ra,0x8
    802002c0:	e1a080e7          	jalr	-486(ra) # 802080d6 <consputc>
    802002c4:	896a                	mv	s2,s10
    consputc(digits[x >> (sizeof(uint64) * 8 - 4)]);
    802002c6:	03c9d793          	srli	a5,s3,0x3c
    802002ca:	97de                	add	a5,a5,s7
    802002cc:	0007c503          	lbu	a0,0(a5)
    802002d0:	00008097          	auipc	ra,0x8
    802002d4:	e06080e7          	jalr	-506(ra) # 802080d6 <consputc>
  for (i = 0; i < (sizeof(uint64) * 2); i++, x <<= 4)
    802002d8:	0992                	slli	s3,s3,0x4
    802002da:	397d                	addiw	s2,s2,-1
    802002dc:	fe0915e3          	bnez	s2,802002c6 <printf+0x13a>
    802002e0:	b799                	j	80200226 <printf+0x9a>
      if((s = va_arg(ap, char*)) == 0)
    802002e2:	f8843783          	ld	a5,-120(s0)
    802002e6:	00878713          	addi	a4,a5,8
    802002ea:	f8e43423          	sd	a4,-120(s0)
    802002ee:	0007b903          	ld	s2,0(a5)
    802002f2:	00090e63          	beqz	s2,8020030e <printf+0x182>
      for(; *s; s++)
    802002f6:	00094503          	lbu	a0,0(s2)
    802002fa:	d515                	beqz	a0,80200226 <printf+0x9a>
        consputc(*s);
    802002fc:	00008097          	auipc	ra,0x8
    80200300:	dda080e7          	jalr	-550(ra) # 802080d6 <consputc>
      for(; *s; s++)
    80200304:	0905                	addi	s2,s2,1
    80200306:	00094503          	lbu	a0,0(s2)
    8020030a:	f96d                	bnez	a0,802002fc <printf+0x170>
    8020030c:	bf29                	j	80200226 <printf+0x9a>
        s = "(null)";
    8020030e:	0000a917          	auipc	s2,0xa
    80200312:	d0a90913          	addi	s2,s2,-758 # 8020a018 <etext+0x18>
      for(; *s; s++)
    80200316:	02800513          	li	a0,40
    8020031a:	b7cd                	j	802002fc <printf+0x170>
      consputc('%');
    8020031c:	8556                	mv	a0,s5
    8020031e:	00008097          	auipc	ra,0x8
    80200322:	db8080e7          	jalr	-584(ra) # 802080d6 <consputc>
      break;
    80200326:	b701                	j	80200226 <printf+0x9a>
      consputc('%');
    80200328:	8556                	mv	a0,s5
    8020032a:	00008097          	auipc	ra,0x8
    8020032e:	dac080e7          	jalr	-596(ra) # 802080d6 <consputc>
      consputc(c);
    80200332:	854a                	mv	a0,s2
    80200334:	00008097          	auipc	ra,0x8
    80200338:	da2080e7          	jalr	-606(ra) # 802080d6 <consputc>
      break;
    8020033c:	b5ed                	j	80200226 <printf+0x9a>
  if(locking)
    8020033e:	020d9163          	bnez	s11,80200360 <printf+0x1d4>
}
    80200342:	70e6                	ld	ra,120(sp)
    80200344:	7446                	ld	s0,112(sp)
    80200346:	74a6                	ld	s1,104(sp)
    80200348:	7906                	ld	s2,96(sp)
    8020034a:	69e6                	ld	s3,88(sp)
    8020034c:	6a46                	ld	s4,80(sp)
    8020034e:	6aa6                	ld	s5,72(sp)
    80200350:	6b06                	ld	s6,64(sp)
    80200352:	7be2                	ld	s7,56(sp)
    80200354:	7c42                	ld	s8,48(sp)
    80200356:	7ca2                	ld	s9,40(sp)
    80200358:	7d02                	ld	s10,32(sp)
    8020035a:	6de2                	ld	s11,24(sp)
    8020035c:	6129                	addi	sp,sp,192
    8020035e:	8082                	ret
    release(&pr.lock);
    80200360:	00017517          	auipc	a0,0x17
    80200364:	ca850513          	addi	a0,a0,-856 # 80217008 <pr>
    80200368:	00000097          	auipc	ra,0x0
    8020036c:	3b4080e7          	jalr	948(ra) # 8020071c <release>
}
    80200370:	bfc9                	j	80200342 <printf+0x1b6>

0000000080200372 <printfinit>:

void
printfinit(void)
{
    80200372:	1141                	addi	sp,sp,-16
    80200374:	e406                	sd	ra,8(sp)
    80200376:	e022                	sd	s0,0(sp)
    80200378:	0800                	addi	s0,sp,16
  initlock(&pr.lock, "pr");
    8020037a:	0000a597          	auipc	a1,0xa
    8020037e:	cb658593          	addi	a1,a1,-842 # 8020a030 <etext+0x30>
    80200382:	00017517          	auipc	a0,0x17
    80200386:	c8650513          	addi	a0,a0,-890 # 80217008 <pr>
    8020038a:	00000097          	auipc	ra,0x0
    8020038e:	2fa080e7          	jalr	762(ra) # 80200684 <initlock>
  pr.locking = 1;   // changed, used to be 1
    80200392:	4785                	li	a5,1
    80200394:	00017717          	auipc	a4,0x17
    80200398:	c8f72623          	sw	a5,-884(a4) # 80217020 <pr+0x18>
}
    8020039c:	60a2                	ld	ra,8(sp)
    8020039e:	6402                	ld	s0,0(sp)
    802003a0:	0141                	addi	sp,sp,16
    802003a2:	8082                	ret

00000000802003a4 <print_logo>:

#ifdef QEMU
void print_logo() {
    802003a4:	1141                	addi	sp,sp,-16
    802003a6:	e406                	sd	ra,8(sp)
    802003a8:	e022                	sd	s0,0(sp)
    802003aa:	0800                	addi	s0,sp,16
    printf("  (`-.            (`-.                            .-')       ('-.    _   .-')\n");
    802003ac:	0000a517          	auipc	a0,0xa
    802003b0:	c8c50513          	addi	a0,a0,-884 # 8020a038 <etext+0x38>
    802003b4:	00000097          	auipc	ra,0x0
    802003b8:	dd8080e7          	jalr	-552(ra) # 8020018c <printf>
    printf(" ( OO ).        _(OO  )_                        .(  OO)    _(  OO)  ( '.( OO )_ \n");
    802003bc:	0000a517          	auipc	a0,0xa
    802003c0:	ccc50513          	addi	a0,a0,-820 # 8020a088 <etext+0x88>
    802003c4:	00000097          	auipc	ra,0x0
    802003c8:	dc8080e7          	jalr	-568(ra) # 8020018c <printf>
    printf("(_/.  \\_)-. ,--(_/   ,. \\  ,--.                (_)---\\_)  (,------.  ,--.   ,--.) ,--. ,--.  \n");
    802003cc:	0000a517          	auipc	a0,0xa
    802003d0:	d1450513          	addi	a0,a0,-748 # 8020a0e0 <etext+0xe0>
    802003d4:	00000097          	auipc	ra,0x0
    802003d8:	db8080e7          	jalr	-584(ra) # 8020018c <printf>
    printf(" \\  `.'  /  \\   \\   /(__/ /  .'       .-')     '  .-.  '   |  .---'  |   `.'   |  |  | |  |   \n");
    802003dc:	0000a517          	auipc	a0,0xa
    802003e0:	d6450513          	addi	a0,a0,-668 # 8020a140 <etext+0x140>
    802003e4:	00000097          	auipc	ra,0x0
    802003e8:	da8080e7          	jalr	-600(ra) # 8020018c <printf>
    printf("  \\     /\\   \\   \\ /   / .  / -.    _(  OO)   ,|  | |  |   |  |      |         |  |  | | .-')\n");
    802003ec:	0000a517          	auipc	a0,0xa
    802003f0:	db450513          	addi	a0,a0,-588 # 8020a1a0 <etext+0x1a0>
    802003f4:	00000097          	auipc	ra,0x0
    802003f8:	d98080e7          	jalr	-616(ra) # 8020018c <printf>
    printf("   \\   \\ |    \\   '   /, | .-.  '  (,------. (_|  | |  |  (|  '--.   |  |'.'|  |  |  |_|( OO )\n");
    802003fc:	0000a517          	auipc	a0,0xa
    80200400:	e0450513          	addi	a0,a0,-508 # 8020a200 <etext+0x200>
    80200404:	00000097          	auipc	ra,0x0
    80200408:	d88080e7          	jalr	-632(ra) # 8020018c <printf>
    printf("  .'    \\_)    \\     /__)' \\  |  |  '------'   |  | |  |   |  .--'   |  |   |  |  |  | | `-' /\n");
    8020040c:	0000a517          	auipc	a0,0xa
    80200410:	e5450513          	addi	a0,a0,-428 # 8020a260 <etext+0x260>
    80200414:	00000097          	auipc	ra,0x0
    80200418:	d78080e7          	jalr	-648(ra) # 8020018c <printf>
    printf(" /  .'.  \\      \\   /    \\  `'  /              '  '-'  '-. |  `---.  |  |   |  | ('  '-'(_.-'\n");
    8020041c:	0000a517          	auipc	a0,0xa
    80200420:	ea450513          	addi	a0,a0,-348 # 8020a2c0 <etext+0x2c0>
    80200424:	00000097          	auipc	ra,0x0
    80200428:	d68080e7          	jalr	-664(ra) # 8020018c <printf>
    printf("'--'   '--'      `-'      `----'                `-----'--' `------'  `--'   `--'   `-----'\n");
    8020042c:	0000a517          	auipc	a0,0xa
    80200430:	ef450513          	addi	a0,a0,-268 # 8020a320 <etext+0x320>
    80200434:	00000097          	auipc	ra,0x0
    80200438:	d58080e7          	jalr	-680(ra) # 8020018c <printf>
}
    8020043c:	60a2                	ld	ra,8(sp)
    8020043e:	6402                	ld	s0,0(sp)
    80200440:	0141                	addi	sp,sp,16
    80200442:	8082                	ret

0000000080200444 <kfree>:
// which normally should have been returned by a
// call to kalloc().  (The exception is when
// initializing the allocator; see kinit above.)
void
kfree(void *pa)
{
    80200444:	1101                	addi	sp,sp,-32
    80200446:	ec06                	sd	ra,24(sp)
    80200448:	e822                	sd	s0,16(sp)
    8020044a:	e426                	sd	s1,8(sp)
    8020044c:	e04a                	sd	s2,0(sp)
    8020044e:	1000                	addi	s0,sp,32
  struct run *r;
  
  if(((uint64)pa % PGSIZE) != 0 || (char*)pa < kernel_end || (uint64)pa >= PHYSTOP)
    80200450:	03451793          	slli	a5,a0,0x34
    80200454:	e3ad                	bnez	a5,802004b6 <kfree+0x72>
    80200456:	84aa                	mv	s1,a0
    80200458:	0000e797          	auipc	a5,0xe
    8020045c:	c887b783          	ld	a5,-888(a5) # 8020e0e0 <_GLOBAL_OFFSET_TABLE_+0x30>
    80200460:	04f56b63          	bltu	a0,a5,802004b6 <kfree+0x72>
    80200464:	40300793          	li	a5,1027
    80200468:	07d6                	slli	a5,a5,0x15
    8020046a:	04f57663          	bgeu	a0,a5,802004b6 <kfree+0x72>
    panic("kfree");

  // Fill with junk to catch dangling refs.
  memset(pa, 1, PGSIZE);
    8020046e:	6605                	lui	a2,0x1
    80200470:	4585                	li	a1,1
    80200472:	00000097          	auipc	ra,0x0
    80200476:	2f2080e7          	jalr	754(ra) # 80200764 <memset>

  r = (struct run*)pa;

  acquire(&kmem.lock);
    8020047a:	00017917          	auipc	s2,0x17
    8020047e:	bae90913          	addi	s2,s2,-1106 # 80217028 <kmem>
    80200482:	854a                	mv	a0,s2
    80200484:	00000097          	auipc	ra,0x0
    80200488:	244080e7          	jalr	580(ra) # 802006c8 <acquire>
  r->next = kmem.freelist;
    8020048c:	01893783          	ld	a5,24(s2)
    80200490:	e09c                	sd	a5,0(s1)
  kmem.freelist = r;
    80200492:	00993c23          	sd	s1,24(s2)
  kmem.npage++;
    80200496:	02093783          	ld	a5,32(s2)
    8020049a:	0785                	addi	a5,a5,1
    8020049c:	02f93023          	sd	a5,32(s2)
  release(&kmem.lock);
    802004a0:	854a                	mv	a0,s2
    802004a2:	00000097          	auipc	ra,0x0
    802004a6:	27a080e7          	jalr	634(ra) # 8020071c <release>
}
    802004aa:	60e2                	ld	ra,24(sp)
    802004ac:	6442                	ld	s0,16(sp)
    802004ae:	64a2                	ld	s1,8(sp)
    802004b0:	6902                	ld	s2,0(sp)
    802004b2:	6105                	addi	sp,sp,32
    802004b4:	8082                	ret
    panic("kfree");
    802004b6:	0000a517          	auipc	a0,0xa
    802004ba:	ee250513          	addi	a0,a0,-286 # 8020a398 <digits+0x18>
    802004be:	00000097          	auipc	ra,0x0
    802004c2:	c84080e7          	jalr	-892(ra) # 80200142 <panic>

00000000802004c6 <freerange>:
{
    802004c6:	7179                	addi	sp,sp,-48
    802004c8:	f406                	sd	ra,40(sp)
    802004ca:	f022                	sd	s0,32(sp)
    802004cc:	ec26                	sd	s1,24(sp)
    802004ce:	e84a                	sd	s2,16(sp)
    802004d0:	e44e                	sd	s3,8(sp)
    802004d2:	e052                	sd	s4,0(sp)
    802004d4:	1800                	addi	s0,sp,48
  p = (char*)PGROUNDUP((uint64)pa_start);
    802004d6:	6785                	lui	a5,0x1
    802004d8:	fff78493          	addi	s1,a5,-1 # fff <_entry-0x801ff001>
    802004dc:	94aa                	add	s1,s1,a0
    802004de:	757d                	lui	a0,0xfffff
    802004e0:	8ce9                	and	s1,s1,a0
  for(; p + PGSIZE <= (char*)pa_end; p += PGSIZE)
    802004e2:	94be                	add	s1,s1,a5
    802004e4:	0095ee63          	bltu	a1,s1,80200500 <freerange+0x3a>
    802004e8:	892e                	mv	s2,a1
    kfree(p);
    802004ea:	7a7d                	lui	s4,0xfffff
  for(; p + PGSIZE <= (char*)pa_end; p += PGSIZE)
    802004ec:	6985                	lui	s3,0x1
    kfree(p);
    802004ee:	01448533          	add	a0,s1,s4
    802004f2:	00000097          	auipc	ra,0x0
    802004f6:	f52080e7          	jalr	-174(ra) # 80200444 <kfree>
  for(; p + PGSIZE <= (char*)pa_end; p += PGSIZE)
    802004fa:	94ce                	add	s1,s1,s3
    802004fc:	fe9979e3          	bgeu	s2,s1,802004ee <freerange+0x28>
}
    80200500:	70a2                	ld	ra,40(sp)
    80200502:	7402                	ld	s0,32(sp)
    80200504:	64e2                	ld	s1,24(sp)
    80200506:	6942                	ld	s2,16(sp)
    80200508:	69a2                	ld	s3,8(sp)
    8020050a:	6a02                	ld	s4,0(sp)
    8020050c:	6145                	addi	sp,sp,48
    8020050e:	8082                	ret

0000000080200510 <kinit>:
{
    80200510:	1101                	addi	sp,sp,-32
    80200512:	ec06                	sd	ra,24(sp)
    80200514:	e822                	sd	s0,16(sp)
    80200516:	e426                	sd	s1,8(sp)
    80200518:	1000                	addi	s0,sp,32
  initlock(&kmem.lock, "kmem");
    8020051a:	00017497          	auipc	s1,0x17
    8020051e:	b0e48493          	addi	s1,s1,-1266 # 80217028 <kmem>
    80200522:	0000a597          	auipc	a1,0xa
    80200526:	e7e58593          	addi	a1,a1,-386 # 8020a3a0 <digits+0x20>
    8020052a:	8526                	mv	a0,s1
    8020052c:	00000097          	auipc	ra,0x0
    80200530:	158080e7          	jalr	344(ra) # 80200684 <initlock>
  kmem.freelist = 0;
    80200534:	0004bc23          	sd	zero,24(s1)
  kmem.npage = 0;
    80200538:	0204b023          	sd	zero,32(s1)
  freerange(kernel_end, (void*)PHYSTOP);
    8020053c:	40300593          	li	a1,1027
    80200540:	05d6                	slli	a1,a1,0x15
    80200542:	0000e517          	auipc	a0,0xe
    80200546:	b9e53503          	ld	a0,-1122(a0) # 8020e0e0 <_GLOBAL_OFFSET_TABLE_+0x30>
    8020054a:	00000097          	auipc	ra,0x0
    8020054e:	f7c080e7          	jalr	-132(ra) # 802004c6 <freerange>
}
    80200552:	60e2                	ld	ra,24(sp)
    80200554:	6442                	ld	s0,16(sp)
    80200556:	64a2                	ld	s1,8(sp)
    80200558:	6105                	addi	sp,sp,32
    8020055a:	8082                	ret

000000008020055c <kalloc>:
// Allocate one 4096-byte page of physical memory.
// Returns a pointer that the kernel can use.
// Returns 0 if the memory cannot be allocated.
void *
kalloc(void)
{
    8020055c:	1101                	addi	sp,sp,-32
    8020055e:	ec06                	sd	ra,24(sp)
    80200560:	e822                	sd	s0,16(sp)
    80200562:	e426                	sd	s1,8(sp)
    80200564:	1000                	addi	s0,sp,32
  struct run *r;

  acquire(&kmem.lock);
    80200566:	00017497          	auipc	s1,0x17
    8020056a:	ac248493          	addi	s1,s1,-1342 # 80217028 <kmem>
    8020056e:	8526                	mv	a0,s1
    80200570:	00000097          	auipc	ra,0x0
    80200574:	158080e7          	jalr	344(ra) # 802006c8 <acquire>
  r = kmem.freelist;
    80200578:	6c84                	ld	s1,24(s1)
  if(r) {
    8020057a:	c89d                	beqz	s1,802005b0 <kalloc+0x54>
    kmem.freelist = r->next;
    8020057c:	609c                	ld	a5,0(s1)
    8020057e:	00017517          	auipc	a0,0x17
    80200582:	aaa50513          	addi	a0,a0,-1366 # 80217028 <kmem>
    80200586:	ed1c                	sd	a5,24(a0)
    kmem.npage--;
    80200588:	711c                	ld	a5,32(a0)
    8020058a:	17fd                	addi	a5,a5,-1
    8020058c:	f11c                	sd	a5,32(a0)
  }
  release(&kmem.lock);
    8020058e:	00000097          	auipc	ra,0x0
    80200592:	18e080e7          	jalr	398(ra) # 8020071c <release>

  if(r)
    memset((char*)r, 5, PGSIZE); // fill with junk
    80200596:	6605                	lui	a2,0x1
    80200598:	4595                	li	a1,5
    8020059a:	8526                	mv	a0,s1
    8020059c:	00000097          	auipc	ra,0x0
    802005a0:	1c8080e7          	jalr	456(ra) # 80200764 <memset>
  return (void*)r;
}
    802005a4:	8526                	mv	a0,s1
    802005a6:	60e2                	ld	ra,24(sp)
    802005a8:	6442                	ld	s0,16(sp)
    802005aa:	64a2                	ld	s1,8(sp)
    802005ac:	6105                	addi	sp,sp,32
    802005ae:	8082                	ret
  release(&kmem.lock);
    802005b0:	00017517          	auipc	a0,0x17
    802005b4:	a7850513          	addi	a0,a0,-1416 # 80217028 <kmem>
    802005b8:	00000097          	auipc	ra,0x0
    802005bc:	164080e7          	jalr	356(ra) # 8020071c <release>
  if(r)
    802005c0:	b7d5                	j	802005a4 <kalloc+0x48>

00000000802005c2 <freemem_amount>:

uint64
freemem_amount(void)
{
    802005c2:	1141                	addi	sp,sp,-16
    802005c4:	e422                	sd	s0,8(sp)
    802005c6:	0800                	addi	s0,sp,16
  return kmem.npage << PGSHIFT;
}
    802005c8:	00017517          	auipc	a0,0x17
    802005cc:	a8053503          	ld	a0,-1408(a0) # 80217048 <kmem+0x20>
    802005d0:	0532                	slli	a0,a0,0xc
    802005d2:	6422                	ld	s0,8(sp)
    802005d4:	0141                	addi	sp,sp,16
    802005d6:	8082                	ret

00000000802005d8 <push_off>:
// it takes two pop_off()s to undo two push_off()s.  Also, if interrupts
// are initially off, then push_off, pop_off leaves them off.

void
push_off(void)
{
    802005d8:	1101                	addi	sp,sp,-32
    802005da:	ec06                	sd	ra,24(sp)
    802005dc:	e822                	sd	s0,16(sp)
    802005de:	e426                	sd	s1,8(sp)
    802005e0:	1000                	addi	s0,sp,32
  asm volatile("csrr %0, sstatus" : "=r" (x) );
    802005e2:	100024f3          	csrr	s1,sstatus
    802005e6:	100027f3          	csrr	a5,sstatus
  w_sstatus(r_sstatus() & ~SSTATUS_SIE);
    802005ea:	9bf5                	andi	a5,a5,-3
  asm volatile("csrw sstatus, %0" : : "r" (x));
    802005ec:	10079073          	csrw	sstatus,a5
  int old = intr_get();

  intr_off();
  //printf("\e[32mpush_off()\e[0m: cpuid(): %d\n", cpuid());
  if(mycpu()->noff == 0)
    802005f0:	00001097          	auipc	ra,0x1
    802005f4:	454080e7          	jalr	1108(ra) # 80201a44 <mycpu>
    802005f8:	5d3c                	lw	a5,120(a0)
    802005fa:	cf89                	beqz	a5,80200614 <push_off+0x3c>
    mycpu()->intena = old;
  mycpu()->noff += 1;
    802005fc:	00001097          	auipc	ra,0x1
    80200600:	448080e7          	jalr	1096(ra) # 80201a44 <mycpu>
    80200604:	5d3c                	lw	a5,120(a0)
    80200606:	2785                	addiw	a5,a5,1
    80200608:	dd3c                	sw	a5,120(a0)
}
    8020060a:	60e2                	ld	ra,24(sp)
    8020060c:	6442                	ld	s0,16(sp)
    8020060e:	64a2                	ld	s1,8(sp)
    80200610:	6105                	addi	sp,sp,32
    80200612:	8082                	ret
    mycpu()->intena = old;
    80200614:	00001097          	auipc	ra,0x1
    80200618:	430080e7          	jalr	1072(ra) # 80201a44 <mycpu>
  return (x & SSTATUS_SIE) != 0;
    8020061c:	8085                	srli	s1,s1,0x1
    8020061e:	8885                	andi	s1,s1,1
    80200620:	dd64                	sw	s1,124(a0)
    80200622:	bfe9                	j	802005fc <push_off+0x24>

0000000080200624 <pop_off>:

void
pop_off(void)
{
    80200624:	1141                	addi	sp,sp,-16
    80200626:	e406                	sd	ra,8(sp)
    80200628:	e022                	sd	s0,0(sp)
    8020062a:	0800                	addi	s0,sp,16
  struct cpu *c = mycpu();
    8020062c:	00001097          	auipc	ra,0x1
    80200630:	418080e7          	jalr	1048(ra) # 80201a44 <mycpu>
  asm volatile("csrr %0, sstatus" : "=r" (x) );
    80200634:	100027f3          	csrr	a5,sstatus
  return (x & SSTATUS_SIE) != 0;
    80200638:	8b89                	andi	a5,a5,2

  //printf("\e[31mpop_off()\e[0m: cpuid(): %d\n", cpuid());
  if(intr_get())
    8020063a:	e78d                	bnez	a5,80200664 <pop_off+0x40>
    panic("pop_off - interruptible");
  if(c->noff < 1) {
    8020063c:	5d3c                	lw	a5,120(a0)
    8020063e:	02f05b63          	blez	a5,80200674 <pop_off+0x50>
    //printf("c->noff = %d\n", c->noff);
    panic("pop_off");
  }
  //printf("c->noff: %d\n", c->noff);
  //printf("c: %x\n", c);
  c->noff -= 1;
    80200642:	37fd                	addiw	a5,a5,-1
    80200644:	0007871b          	sext.w	a4,a5
    80200648:	dd3c                	sw	a5,120(a0)
  if(c->noff == 0 && c->intena)
    8020064a:	eb09                	bnez	a4,8020065c <pop_off+0x38>
    8020064c:	5d7c                	lw	a5,124(a0)
    8020064e:	c799                	beqz	a5,8020065c <pop_off+0x38>
  asm volatile("csrr %0, sstatus" : "=r" (x) );
    80200650:	100027f3          	csrr	a5,sstatus
  w_sstatus(r_sstatus() | SSTATUS_SIE);
    80200654:	0027e793          	ori	a5,a5,2
  asm volatile("csrw sstatus, %0" : : "r" (x));
    80200658:	10079073          	csrw	sstatus,a5
    intr_on();
}
    8020065c:	60a2                	ld	ra,8(sp)
    8020065e:	6402                	ld	s0,0(sp)
    80200660:	0141                	addi	sp,sp,16
    80200662:	8082                	ret
    panic("pop_off - interruptible");
    80200664:	0000a517          	auipc	a0,0xa
    80200668:	d4450513          	addi	a0,a0,-700 # 8020a3a8 <digits+0x28>
    8020066c:	00000097          	auipc	ra,0x0
    80200670:	ad6080e7          	jalr	-1322(ra) # 80200142 <panic>
    panic("pop_off");
    80200674:	0000a517          	auipc	a0,0xa
    80200678:	d4c50513          	addi	a0,a0,-692 # 8020a3c0 <digits+0x40>
    8020067c:	00000097          	auipc	ra,0x0
    80200680:	ac6080e7          	jalr	-1338(ra) # 80200142 <panic>

0000000080200684 <initlock>:
#include "include/intr.h"
#include "include/printf.h"

void
initlock(struct spinlock *lk, char *name)
{
    80200684:	1141                	addi	sp,sp,-16
    80200686:	e422                	sd	s0,8(sp)
    80200688:	0800                	addi	s0,sp,16
  lk->name = name;
    8020068a:	e50c                	sd	a1,8(a0)
  lk->locked = 0;
    8020068c:	00052023          	sw	zero,0(a0)
  lk->cpu = 0;
    80200690:	00053823          	sd	zero,16(a0)
}
    80200694:	6422                	ld	s0,8(sp)
    80200696:	0141                	addi	sp,sp,16
    80200698:	8082                	ret

000000008020069a <holding>:
// Interrupts must be off.
int
holding(struct spinlock *lk)
{
  int r;
  r = (lk->locked && lk->cpu == mycpu());
    8020069a:	411c                	lw	a5,0(a0)
    8020069c:	e399                	bnez	a5,802006a2 <holding+0x8>
    8020069e:	4501                	li	a0,0
  return r;
}
    802006a0:	8082                	ret
{
    802006a2:	1101                	addi	sp,sp,-32
    802006a4:	ec06                	sd	ra,24(sp)
    802006a6:	e822                	sd	s0,16(sp)
    802006a8:	e426                	sd	s1,8(sp)
    802006aa:	1000                	addi	s0,sp,32
  r = (lk->locked && lk->cpu == mycpu());
    802006ac:	6904                	ld	s1,16(a0)
    802006ae:	00001097          	auipc	ra,0x1
    802006b2:	396080e7          	jalr	918(ra) # 80201a44 <mycpu>
    802006b6:	40a48533          	sub	a0,s1,a0
    802006ba:	00153513          	seqz	a0,a0
}
    802006be:	60e2                	ld	ra,24(sp)
    802006c0:	6442                	ld	s0,16(sp)
    802006c2:	64a2                	ld	s1,8(sp)
    802006c4:	6105                	addi	sp,sp,32
    802006c6:	8082                	ret

00000000802006c8 <acquire>:
{
    802006c8:	1101                	addi	sp,sp,-32
    802006ca:	ec06                	sd	ra,24(sp)
    802006cc:	e822                	sd	s0,16(sp)
    802006ce:	e426                	sd	s1,8(sp)
    802006d0:	1000                	addi	s0,sp,32
    802006d2:	84aa                	mv	s1,a0
  push_off(); // disable interrupts to avoid deadlock.
    802006d4:	00000097          	auipc	ra,0x0
    802006d8:	f04080e7          	jalr	-252(ra) # 802005d8 <push_off>
  if(holding(lk))
    802006dc:	8526                	mv	a0,s1
    802006de:	00000097          	auipc	ra,0x0
    802006e2:	fbc080e7          	jalr	-68(ra) # 8020069a <holding>
  while(__sync_lock_test_and_set(&lk->locked, 1) != 0)
    802006e6:	4705                	li	a4,1
  if(holding(lk))
    802006e8:	e115                	bnez	a0,8020070c <acquire+0x44>
  while(__sync_lock_test_and_set(&lk->locked, 1) != 0)
    802006ea:	87ba                	mv	a5,a4
    802006ec:	0cf4a7af          	amoswap.w.aq	a5,a5,(s1)
    802006f0:	2781                	sext.w	a5,a5
    802006f2:	ffe5                	bnez	a5,802006ea <acquire+0x22>
  __sync_synchronize();
    802006f4:	0ff0000f          	fence
  lk->cpu = mycpu();
    802006f8:	00001097          	auipc	ra,0x1
    802006fc:	34c080e7          	jalr	844(ra) # 80201a44 <mycpu>
    80200700:	e888                	sd	a0,16(s1)
}
    80200702:	60e2                	ld	ra,24(sp)
    80200704:	6442                	ld	s0,16(sp)
    80200706:	64a2                	ld	s1,8(sp)
    80200708:	6105                	addi	sp,sp,32
    8020070a:	8082                	ret
    panic("acquire");
    8020070c:	0000a517          	auipc	a0,0xa
    80200710:	cbc50513          	addi	a0,a0,-836 # 8020a3c8 <digits+0x48>
    80200714:	00000097          	auipc	ra,0x0
    80200718:	a2e080e7          	jalr	-1490(ra) # 80200142 <panic>

000000008020071c <release>:
{
    8020071c:	1101                	addi	sp,sp,-32
    8020071e:	ec06                	sd	ra,24(sp)
    80200720:	e822                	sd	s0,16(sp)
    80200722:	e426                	sd	s1,8(sp)
    80200724:	1000                	addi	s0,sp,32
    80200726:	84aa                	mv	s1,a0
  if(!holding(lk))
    80200728:	00000097          	auipc	ra,0x0
    8020072c:	f72080e7          	jalr	-142(ra) # 8020069a <holding>
    80200730:	c115                	beqz	a0,80200754 <release+0x38>
  lk->cpu = 0;
    80200732:	0004b823          	sd	zero,16(s1)
  __sync_synchronize();
    80200736:	0ff0000f          	fence
  __sync_lock_release(&lk->locked);
    8020073a:	0f50000f          	fence	iorw,ow
    8020073e:	0804a02f          	amoswap.w	zero,zero,(s1)
  pop_off();
    80200742:	00000097          	auipc	ra,0x0
    80200746:	ee2080e7          	jalr	-286(ra) # 80200624 <pop_off>
}
    8020074a:	60e2                	ld	ra,24(sp)
    8020074c:	6442                	ld	s0,16(sp)
    8020074e:	64a2                	ld	s1,8(sp)
    80200750:	6105                	addi	sp,sp,32
    80200752:	8082                	ret
    panic("release");
    80200754:	0000a517          	auipc	a0,0xa
    80200758:	c7c50513          	addi	a0,a0,-900 # 8020a3d0 <digits+0x50>
    8020075c:	00000097          	auipc	ra,0x0
    80200760:	9e6080e7          	jalr	-1562(ra) # 80200142 <panic>

0000000080200764 <memset>:
#include "include/types.h"

void*
memset(void *dst, int c, uint n)
{
    80200764:	1141                	addi	sp,sp,-16
    80200766:	e422                	sd	s0,8(sp)
    80200768:	0800                	addi	s0,sp,16
  char *cdst = (char *) dst;
  int i;
  for(i = 0; i < n; i++){
    8020076a:	ce09                	beqz	a2,80200784 <memset+0x20>
    8020076c:	87aa                	mv	a5,a0
    8020076e:	fff6071b          	addiw	a4,a2,-1
    80200772:	1702                	slli	a4,a4,0x20
    80200774:	9301                	srli	a4,a4,0x20
    80200776:	0705                	addi	a4,a4,1
    80200778:	972a                	add	a4,a4,a0
    cdst[i] = c;
    8020077a:	00b78023          	sb	a1,0(a5)
  for(i = 0; i < n; i++){
    8020077e:	0785                	addi	a5,a5,1
    80200780:	fee79de3          	bne	a5,a4,8020077a <memset+0x16>
  }
  return dst;
}
    80200784:	6422                	ld	s0,8(sp)
    80200786:	0141                	addi	sp,sp,16
    80200788:	8082                	ret

000000008020078a <memcmp>:

int
memcmp(const void *v1, const void *v2, uint n)
{
    8020078a:	1141                	addi	sp,sp,-16
    8020078c:	e422                	sd	s0,8(sp)
    8020078e:	0800                	addi	s0,sp,16
  const uchar *s1, *s2;

  s1 = v1;
  s2 = v2;
  while(n-- > 0){
    80200790:	ca05                	beqz	a2,802007c0 <memcmp+0x36>
    80200792:	fff6069b          	addiw	a3,a2,-1
    80200796:	1682                	slli	a3,a3,0x20
    80200798:	9281                	srli	a3,a3,0x20
    8020079a:	0685                	addi	a3,a3,1
    8020079c:	96aa                	add	a3,a3,a0
    if(*s1 != *s2)
    8020079e:	00054783          	lbu	a5,0(a0)
    802007a2:	0005c703          	lbu	a4,0(a1)
    802007a6:	00e79863          	bne	a5,a4,802007b6 <memcmp+0x2c>
      return *s1 - *s2;
    s1++, s2++;
    802007aa:	0505                	addi	a0,a0,1
    802007ac:	0585                	addi	a1,a1,1
  while(n-- > 0){
    802007ae:	fed518e3          	bne	a0,a3,8020079e <memcmp+0x14>
  }

  return 0;
    802007b2:	4501                	li	a0,0
    802007b4:	a019                	j	802007ba <memcmp+0x30>
      return *s1 - *s2;
    802007b6:	40e7853b          	subw	a0,a5,a4
}
    802007ba:	6422                	ld	s0,8(sp)
    802007bc:	0141                	addi	sp,sp,16
    802007be:	8082                	ret
  return 0;
    802007c0:	4501                	li	a0,0
    802007c2:	bfe5                	j	802007ba <memcmp+0x30>

00000000802007c4 <memmove>:

void*
memmove(void *dst, const void *src, uint n)
{
    802007c4:	1141                	addi	sp,sp,-16
    802007c6:	e422                	sd	s0,8(sp)
    802007c8:	0800                	addi	s0,sp,16
  const char *s;
  char *d;

  s = src;
  d = dst;
  if(s < d && s + n > d){
    802007ca:	00a5f963          	bgeu	a1,a0,802007dc <memmove+0x18>
    802007ce:	02061713          	slli	a4,a2,0x20
    802007d2:	9301                	srli	a4,a4,0x20
    802007d4:	00e587b3          	add	a5,a1,a4
    802007d8:	02f56563          	bltu	a0,a5,80200802 <memmove+0x3e>
    s += n;
    d += n;
    while(n-- > 0)
      *--d = *--s;
  } else
    while(n-- > 0)
    802007dc:	fff6069b          	addiw	a3,a2,-1
    802007e0:	ce11                	beqz	a2,802007fc <memmove+0x38>
    802007e2:	1682                	slli	a3,a3,0x20
    802007e4:	9281                	srli	a3,a3,0x20
    802007e6:	0685                	addi	a3,a3,1
    802007e8:	96ae                	add	a3,a3,a1
    802007ea:	87aa                	mv	a5,a0
      *d++ = *s++;
    802007ec:	0585                	addi	a1,a1,1
    802007ee:	0785                	addi	a5,a5,1
    802007f0:	fff5c703          	lbu	a4,-1(a1)
    802007f4:	fee78fa3          	sb	a4,-1(a5)
    while(n-- > 0)
    802007f8:	fed59ae3          	bne	a1,a3,802007ec <memmove+0x28>

  return dst;
}
    802007fc:	6422                	ld	s0,8(sp)
    802007fe:	0141                	addi	sp,sp,16
    80200800:	8082                	ret
    d += n;
    80200802:	972a                	add	a4,a4,a0
    while(n-- > 0)
    80200804:	fff6069b          	addiw	a3,a2,-1
    80200808:	da75                	beqz	a2,802007fc <memmove+0x38>
    8020080a:	02069613          	slli	a2,a3,0x20
    8020080e:	9201                	srli	a2,a2,0x20
    80200810:	fff64613          	not	a2,a2
    80200814:	963e                	add	a2,a2,a5
      *--d = *--s;
    80200816:	17fd                	addi	a5,a5,-1
    80200818:	177d                	addi	a4,a4,-1
    8020081a:	0007c683          	lbu	a3,0(a5)
    8020081e:	00d70023          	sb	a3,0(a4)
    while(n-- > 0)
    80200822:	fec79ae3          	bne	a5,a2,80200816 <memmove+0x52>
    80200826:	bfd9                	j	802007fc <memmove+0x38>

0000000080200828 <memcpy>:

// memcpy exists to placate GCC.  Use memmove.
void*
memcpy(void *dst, const void *src, uint n)
{
    80200828:	1141                	addi	sp,sp,-16
    8020082a:	e406                	sd	ra,8(sp)
    8020082c:	e022                	sd	s0,0(sp)
    8020082e:	0800                	addi	s0,sp,16
  return memmove(dst, src, n);
    80200830:	00000097          	auipc	ra,0x0
    80200834:	f94080e7          	jalr	-108(ra) # 802007c4 <memmove>
}
    80200838:	60a2                	ld	ra,8(sp)
    8020083a:	6402                	ld	s0,0(sp)
    8020083c:	0141                	addi	sp,sp,16
    8020083e:	8082                	ret

0000000080200840 <strncmp>:

int
strncmp(const char *p, const char *q, uint n)
{
    80200840:	1141                	addi	sp,sp,-16
    80200842:	e422                	sd	s0,8(sp)
    80200844:	0800                	addi	s0,sp,16
  while(n > 0 && *p && *p == *q)
    80200846:	ce11                	beqz	a2,80200862 <strncmp+0x22>
    80200848:	00054783          	lbu	a5,0(a0)
    8020084c:	cf89                	beqz	a5,80200866 <strncmp+0x26>
    8020084e:	0005c703          	lbu	a4,0(a1)
    80200852:	00f71a63          	bne	a4,a5,80200866 <strncmp+0x26>
    n--, p++, q++;
    80200856:	367d                	addiw	a2,a2,-1
    80200858:	0505                	addi	a0,a0,1
    8020085a:	0585                	addi	a1,a1,1
  while(n > 0 && *p && *p == *q)
    8020085c:	f675                	bnez	a2,80200848 <strncmp+0x8>
  if(n == 0)
    return 0;
    8020085e:	4501                	li	a0,0
    80200860:	a809                	j	80200872 <strncmp+0x32>
    80200862:	4501                	li	a0,0
    80200864:	a039                	j	80200872 <strncmp+0x32>
  if(n == 0)
    80200866:	ca09                	beqz	a2,80200878 <strncmp+0x38>
  return (uchar)*p - (uchar)*q;
    80200868:	00054503          	lbu	a0,0(a0)
    8020086c:	0005c783          	lbu	a5,0(a1)
    80200870:	9d1d                	subw	a0,a0,a5
}
    80200872:	6422                	ld	s0,8(sp)
    80200874:	0141                	addi	sp,sp,16
    80200876:	8082                	ret
    return 0;
    80200878:	4501                	li	a0,0
    8020087a:	bfe5                	j	80200872 <strncmp+0x32>

000000008020087c <strncpy>:

char*
strncpy(char *s, const char *t, int n)
{
    8020087c:	1141                	addi	sp,sp,-16
    8020087e:	e422                	sd	s0,8(sp)
    80200880:	0800                	addi	s0,sp,16
  char *os;

  os = s;
  while(n-- > 0 && (*s++ = *t++) != 0)
    80200882:	872a                	mv	a4,a0
    80200884:	8832                	mv	a6,a2
    80200886:	367d                	addiw	a2,a2,-1
    80200888:	01005963          	blez	a6,8020089a <strncpy+0x1e>
    8020088c:	0705                	addi	a4,a4,1
    8020088e:	0005c783          	lbu	a5,0(a1)
    80200892:	fef70fa3          	sb	a5,-1(a4)
    80200896:	0585                	addi	a1,a1,1
    80200898:	f7f5                	bnez	a5,80200884 <strncpy+0x8>
    ;
  while(n-- > 0)
    8020089a:	00c05d63          	blez	a2,802008b4 <strncpy+0x38>
    8020089e:	86ba                	mv	a3,a4
    *s++ = 0;
    802008a0:	0685                	addi	a3,a3,1
    802008a2:	fe068fa3          	sb	zero,-1(a3)
  while(n-- > 0)
    802008a6:	fff6c793          	not	a5,a3
    802008aa:	9fb9                	addw	a5,a5,a4
    802008ac:	010787bb          	addw	a5,a5,a6
    802008b0:	fef048e3          	bgtz	a5,802008a0 <strncpy+0x24>
  return os;
}
    802008b4:	6422                	ld	s0,8(sp)
    802008b6:	0141                	addi	sp,sp,16
    802008b8:	8082                	ret

00000000802008ba <safestrcpy>:

// Like strncpy but guaranteed to NUL-terminate.
char*
safestrcpy(char *s, const char *t, int n)
{
    802008ba:	1141                	addi	sp,sp,-16
    802008bc:	e422                	sd	s0,8(sp)
    802008be:	0800                	addi	s0,sp,16
  char *os;

  os = s;
  if(n <= 0)
    802008c0:	02c05363          	blez	a2,802008e6 <safestrcpy+0x2c>
    802008c4:	fff6069b          	addiw	a3,a2,-1
    802008c8:	1682                	slli	a3,a3,0x20
    802008ca:	9281                	srli	a3,a3,0x20
    802008cc:	96ae                	add	a3,a3,a1
    802008ce:	87aa                	mv	a5,a0
    return os;
  while(--n > 0 && (*s++ = *t++) != 0)
    802008d0:	00d58963          	beq	a1,a3,802008e2 <safestrcpy+0x28>
    802008d4:	0585                	addi	a1,a1,1
    802008d6:	0785                	addi	a5,a5,1
    802008d8:	fff5c703          	lbu	a4,-1(a1)
    802008dc:	fee78fa3          	sb	a4,-1(a5)
    802008e0:	fb65                	bnez	a4,802008d0 <safestrcpy+0x16>
    ;
  *s = 0;
    802008e2:	00078023          	sb	zero,0(a5)
  return os;
}
    802008e6:	6422                	ld	s0,8(sp)
    802008e8:	0141                	addi	sp,sp,16
    802008ea:	8082                	ret

00000000802008ec <strlen>:

int
strlen(const char *s)
{
    802008ec:	1141                	addi	sp,sp,-16
    802008ee:	e422                	sd	s0,8(sp)
    802008f0:	0800                	addi	s0,sp,16
  int n;

  for(n = 0; s[n]; n++)
    802008f2:	00054783          	lbu	a5,0(a0)
    802008f6:	cf91                	beqz	a5,80200912 <strlen+0x26>
    802008f8:	0505                	addi	a0,a0,1
    802008fa:	87aa                	mv	a5,a0
    802008fc:	4685                	li	a3,1
    802008fe:	9e89                	subw	a3,a3,a0
    80200900:	00f6853b          	addw	a0,a3,a5
    80200904:	0785                	addi	a5,a5,1
    80200906:	fff7c703          	lbu	a4,-1(a5)
    8020090a:	fb7d                	bnez	a4,80200900 <strlen+0x14>
    ;
  return n;
}
    8020090c:	6422                	ld	s0,8(sp)
    8020090e:	0141                	addi	sp,sp,16
    80200910:	8082                	ret
  for(n = 0; s[n]; n++)
    80200912:	4501                	li	a0,0
    80200914:	bfe5                	j	8020090c <strlen+0x20>

0000000080200916 <wnstr>:

// convert uchar string into wide char string 
void wnstr(wchar *dst, char const *src, int len) {
    80200916:	1141                	addi	sp,sp,-16
    80200918:	e422                	sd	s0,8(sp)
    8020091a:	0800                	addi	s0,sp,16
  while (len -- && *src) {
    8020091c:	c215                	beqz	a2,80200940 <wnstr+0x2a>
    8020091e:	fff6071b          	addiw	a4,a2,-1
    80200922:	1702                	slli	a4,a4,0x20
    80200924:	9301                	srli	a4,a4,0x20
    80200926:	0705                	addi	a4,a4,1
    80200928:	0706                	slli	a4,a4,0x1
    8020092a:	972a                	add	a4,a4,a0
    8020092c:	0005c783          	lbu	a5,0(a1)
    80200930:	cb81                	beqz	a5,80200940 <wnstr+0x2a>
    *(uchar*)dst = *src++;
    80200932:	0585                	addi	a1,a1,1
    80200934:	00f50023          	sb	a5,0(a0)
    dst ++;
    80200938:	0509                	addi	a0,a0,2
  while (len -- && *src) {
    8020093a:	fee519e3          	bne	a0,a4,8020092c <wnstr+0x16>
    dst ++;
    8020093e:	853a                	mv	a0,a4
  }

  *dst = 0;
    80200940:	00051023          	sh	zero,0(a0)
}
    80200944:	6422                	ld	s0,8(sp)
    80200946:	0141                	addi	sp,sp,16
    80200948:	8082                	ret

000000008020094a <snstr>:

// convert wide char string into uchar string 
void snstr(char *dst, wchar const *src, int len) {
    8020094a:	1141                	addi	sp,sp,-16
    8020094c:	e422                	sd	s0,8(sp)
    8020094e:	0800                	addi	s0,sp,16
  while (len -- && *src) {
    80200950:	c221                	beqz	a2,80200990 <snstr+0x46>
    80200952:	fff6079b          	addiw	a5,a2,-1
    80200956:	fff6069b          	addiw	a3,a2,-1
    8020095a:	1682                	slli	a3,a3,0x20
    8020095c:	9281                	srli	a3,a3,0x20
    8020095e:	0685                	addi	a3,a3,1
    80200960:	96aa                	add	a3,a3,a0
    80200962:	0005d703          	lhu	a4,0(a1)
    80200966:	cb09                	beqz	a4,80200978 <snstr+0x2e>
    *dst++ = (uchar)(*src & 0xff);
    80200968:	0505                	addi	a0,a0,1
    8020096a:	fee50fa3          	sb	a4,-1(a0)
    src ++;
    8020096e:	0589                	addi	a1,a1,2
  while (len -- && *src) {
    80200970:	37fd                	addiw	a5,a5,-1
    80200972:	fed518e3          	bne	a0,a3,80200962 <snstr+0x18>
    *dst++ = (uchar)(*src & 0xff);
    80200976:	8536                	mv	a0,a3
  }
  while(len-- > 0)
    80200978:	00f05c63          	blez	a5,80200990 <snstr+0x46>
    8020097c:	37fd                	addiw	a5,a5,-1
    8020097e:	1782                	slli	a5,a5,0x20
    80200980:	9381                	srli	a5,a5,0x20
    80200982:	0785                	addi	a5,a5,1
    80200984:	97aa                	add	a5,a5,a0
    *dst++ = 0;
    80200986:	0505                	addi	a0,a0,1
    80200988:	fe050fa3          	sb	zero,-1(a0)
  while(len-- > 0)
    8020098c:	fea79de3          	bne	a5,a0,80200986 <snstr+0x3c>
}
    80200990:	6422                	ld	s0,8(sp)
    80200992:	0141                	addi	sp,sp,16
    80200994:	8082                	ret

0000000080200996 <wcsncmp>:

int wcsncmp(wchar const *s1, wchar const *s2, int len) {
    80200996:	1141                	addi	sp,sp,-16
    80200998:	e422                	sd	s0,8(sp)
    8020099a:	0800                	addi	s0,sp,16
    8020099c:	872a                	mv	a4,a0
  int ret = 0;

  while (len-- && *s1) {
    8020099e:	02061693          	slli	a3,a2,0x20
    802009a2:	9281                	srli	a3,a3,0x20
    802009a4:	0686                	slli	a3,a3,0x1
    802009a6:	96ae                	add	a3,a3,a1
    802009a8:	00d58f63          	beq	a1,a3,802009c6 <wcsncmp+0x30>
    802009ac:	00075783          	lhu	a5,0(a4)
    802009b0:	cb89                	beqz	a5,802009c2 <wcsncmp+0x2c>
    ret = (int)(*s1++ - *s2++);
    802009b2:	0709                	addi	a4,a4,2
    802009b4:	0589                	addi	a1,a1,2
    802009b6:	ffe5d503          	lhu	a0,-2(a1)
    802009ba:	40a7853b          	subw	a0,a5,a0
    if (ret) break;
    802009be:	d56d                	beqz	a0,802009a8 <wcsncmp+0x12>
    802009c0:	a021                	j	802009c8 <wcsncmp+0x32>
    802009c2:	4501                	li	a0,0
    802009c4:	a011                	j	802009c8 <wcsncmp+0x32>
    802009c6:	4501                	li	a0,0
  }

  return ret;
}
    802009c8:	6422                	ld	s0,8(sp)
    802009ca:	0141                	addi	sp,sp,16
    802009cc:	8082                	ret

00000000802009ce <strchr>:

char*
strchr(const char *s, char c)
{
    802009ce:	1141                	addi	sp,sp,-16
    802009d0:	e422                	sd	s0,8(sp)
    802009d2:	0800                	addi	s0,sp,16
  for(; *s; s++)
    802009d4:	00054783          	lbu	a5,0(a0)
    802009d8:	cb99                	beqz	a5,802009ee <strchr+0x20>
    if(*s == c)
    802009da:	00f58763          	beq	a1,a5,802009e8 <strchr+0x1a>
  for(; *s; s++)
    802009de:	0505                	addi	a0,a0,1
    802009e0:	00054783          	lbu	a5,0(a0)
    802009e4:	fbfd                	bnez	a5,802009da <strchr+0xc>
      return (char*)s;
  return 0;
    802009e6:	4501                	li	a0,0
    802009e8:	6422                	ld	s0,8(sp)
    802009ea:	0141                	addi	sp,sp,16
    802009ec:	8082                	ret
  return 0;
    802009ee:	4501                	li	a0,0
    802009f0:	bfe5                	j	802009e8 <strchr+0x1a>

00000000802009f2 <main>:
// added by lmq
// extern char _entry[];

void
main(unsigned long hartid, unsigned long dtb_pa)
{
    802009f2:	1101                	addi	sp,sp,-32
    802009f4:	ec06                	sd	ra,24(sp)
    802009f6:	e822                	sd	s0,16(sp)
    802009f8:	1000                	addi	s0,sp,32
  asm volatile("mv tp, %0" : : "r" (hartid & 0x1));
    802009fa:	00157793          	andi	a5,a0,1
    802009fe:	823e                	mv	tp,a5
    started = 1;
  }
  else
  {
    // hart 1
    while (started == 0)
    80200a00:	00016717          	auipc	a4,0x16
    80200a04:	65070713          	addi	a4,a4,1616 # 80217050 <started>
  if (hartid == 0) {
    80200a08:	cd15                	beqz	a0,80200a44 <main+0x52>
    while (started == 0)
    80200a0a:	431c                	lw	a5,0(a4)
    80200a0c:	2781                	sext.w	a5,a5
    80200a0e:	dff5                	beqz	a5,80200a0a <main+0x18>
      ;
    __sync_synchronize();
    80200a10:	0ff0000f          	fence
    #ifdef DEBUG
    printf("hart %d enter main()...\n", hartid);
    #endif
    kvminithart();
    80200a14:	00000097          	auipc	ra,0x0
    80200a18:	0de080e7          	jalr	222(ra) # 80200af2 <kvminithart>
    trapinithart();
    80200a1c:	00002097          	auipc	ra,0x2
    80200a20:	fa4080e7          	jalr	-92(ra) # 802029c0 <trapinithart>
    plicinithart();  // ask PLIC for device interrupts
    80200a24:	00007097          	auipc	ra,0x7
    80200a28:	46c080e7          	jalr	1132(ra) # 80207e90 <plicinithart>
    printf("hart 1 init done\n");
    80200a2c:	0000a517          	auipc	a0,0xa
    80200a30:	9c450513          	addi	a0,a0,-1596 # 8020a3f0 <digits+0x70>
    80200a34:	fffff097          	auipc	ra,0xfffff
    80200a38:	758080e7          	jalr	1880(ra) # 8020018c <printf>
  }
  scheduler();
    80200a3c:	00001097          	auipc	ra,0x1
    80200a40:	5d0080e7          	jalr	1488(ra) # 8020200c <scheduler>
    consoleinit();
    80200a44:	00008097          	auipc	ra,0x8
    80200a48:	862080e7          	jalr	-1950(ra) # 802082a6 <consoleinit>
    printfinit();   // init a lock for printf 
    80200a4c:	00000097          	auipc	ra,0x0
    80200a50:	926080e7          	jalr	-1754(ra) # 80200372 <printfinit>
    print_logo();
    80200a54:	00000097          	auipc	ra,0x0
    80200a58:	950080e7          	jalr	-1712(ra) # 802003a4 <print_logo>
    kinit();         // physical page allocator
    80200a5c:	00000097          	auipc	ra,0x0
    80200a60:	ab4080e7          	jalr	-1356(ra) # 80200510 <kinit>
    kvminit();       // create kernel page table
    80200a64:	00000097          	auipc	ra,0x0
    80200a68:	2d8080e7          	jalr	728(ra) # 80200d3c <kvminit>
    kvminithart();   // turn on paging
    80200a6c:	00000097          	auipc	ra,0x0
    80200a70:	086080e7          	jalr	134(ra) # 80200af2 <kvminithart>
    timerinit();     // init a lock for timer
    80200a74:	00006097          	auipc	ra,0x6
    80200a78:	98a080e7          	jalr	-1654(ra) # 802063fe <timerinit>
    trapinithart();  // install kernel trap vector, including interrupt handler
    80200a7c:	00002097          	auipc	ra,0x2
    80200a80:	f44080e7          	jalr	-188(ra) # 802029c0 <trapinithart>
    procinit();
    80200a84:	00001097          	auipc	ra,0x1
    80200a88:	f32080e7          	jalr	-206(ra) # 802019b6 <procinit>
    plicinit();
    80200a8c:	00007097          	auipc	ra,0x7
    80200a90:	3ec080e7          	jalr	1004(ra) # 80207e78 <plicinit>
    plicinithart();
    80200a94:	00007097          	auipc	ra,0x7
    80200a98:	3fc080e7          	jalr	1020(ra) # 80207e90 <plicinithart>
    disk_init();
    80200a9c:	00006097          	auipc	ra,0x6
    80200aa0:	9fe080e7          	jalr	-1538(ra) # 8020649a <disk_init>
    binit();         // buffer cache
    80200aa4:	00003097          	auipc	ra,0x3
    80200aa8:	05c080e7          	jalr	92(ra) # 80203b00 <binit>
    fileinit();      // file table
    80200aac:	00003097          	auipc	ra,0x3
    80200ab0:	460080e7          	jalr	1120(ra) # 80203f0c <fileinit>
    userinit();      // first user process
    80200ab4:	00001097          	auipc	ra,0x1
    80200ab8:	2ea080e7          	jalr	746(ra) # 80201d9e <userinit>
    printf("hart 0 init done\n");
    80200abc:	0000a517          	auipc	a0,0xa
    80200ac0:	91c50513          	addi	a0,a0,-1764 # 8020a3d8 <digits+0x58>
    80200ac4:	fffff097          	auipc	ra,0xfffff
    80200ac8:	6c8080e7          	jalr	1736(ra) # 8020018c <printf>
      unsigned long mask = 1 << i;
    80200acc:	4789                	li	a5,2
    80200ace:	fef43423          	sd	a5,-24(s0)
	SBI_CALL_0(SBI_CLEAR_IPI);
}

static inline void sbi_send_ipi(const unsigned long *hart_mask)
{
	SBI_CALL_1(SBI_SEND_IPI, hart_mask);
    80200ad2:	fe840513          	addi	a0,s0,-24
    80200ad6:	4581                	li	a1,0
    80200ad8:	4601                	li	a2,0
    80200ada:	4681                	li	a3,0
    80200adc:	4891                	li	a7,4
    80200ade:	00000073          	ecall
    __sync_synchronize();
    80200ae2:	0ff0000f          	fence
    started = 1;
    80200ae6:	4785                	li	a5,1
    80200ae8:	00016717          	auipc	a4,0x16
    80200aec:	56f72423          	sw	a5,1384(a4) # 80217050 <started>
    80200af0:	b7b1                	j	80200a3c <main+0x4a>

0000000080200af2 <kvminithart>:

// Switch h/w page table register to the kernel's page table,
// and enable paging.
void
kvminithart()
{
    80200af2:	1141                	addi	sp,sp,-16
    80200af4:	e422                	sd	s0,8(sp)
    80200af6:	0800                	addi	s0,sp,16
  w_satp(MAKE_SATP(kernel_pagetable));
    80200af8:	00016797          	auipc	a5,0x16
    80200afc:	5607b783          	ld	a5,1376(a5) # 80217058 <kernel_pagetable>
    80200b00:	83b1                	srli	a5,a5,0xc
    80200b02:	577d                	li	a4,-1
    80200b04:	177e                	slli	a4,a4,0x3f
    80200b06:	8fd9                	or	a5,a5,a4
  asm volatile("csrw satp, %0" : : "r" (x));
    80200b08:	18079073          	csrw	satp,a5
static inline void
sfence_vma()
{
  // the zero, zero means flush all TLB entries.
  // asm volatile("sfence.vma zero, zero");
  asm volatile("sfence.vma");
    80200b0c:	12000073          	sfence.vma
  // reg_info();
  sfence_vma();
  #ifdef DEBUG
  printf("kvminithart\n");
  #endif
}
    80200b10:	6422                	ld	s0,8(sp)
    80200b12:	0141                	addi	sp,sp,16
    80200b14:	8082                	ret

0000000080200b16 <walk>:
//   21..29 -- 9 bits of level-1 index.
//   12..20 -- 9 bits of level-0 index.
//    0..11 -- 12 bits of byte offset within the page.
pte_t *
walk(pagetable_t pagetable, uint64 va, int alloc)
{
    80200b16:	7139                	addi	sp,sp,-64
    80200b18:	fc06                	sd	ra,56(sp)
    80200b1a:	f822                	sd	s0,48(sp)
    80200b1c:	f426                	sd	s1,40(sp)
    80200b1e:	f04a                	sd	s2,32(sp)
    80200b20:	ec4e                	sd	s3,24(sp)
    80200b22:	e852                	sd	s4,16(sp)
    80200b24:	e456                	sd	s5,8(sp)
    80200b26:	e05a                	sd	s6,0(sp)
    80200b28:	0080                	addi	s0,sp,64
    80200b2a:	84aa                	mv	s1,a0
    80200b2c:	89ae                	mv	s3,a1
    80200b2e:	8ab2                	mv	s5,a2
  
  if(va >= MAXVA)
    80200b30:	57fd                	li	a5,-1
    80200b32:	83e9                	srli	a5,a5,0x1a
    80200b34:	4a79                	li	s4,30
    panic("walk");

  for(int level = 2; level > 0; level--) {
    80200b36:	4b31                	li	s6,12
  if(va >= MAXVA)
    80200b38:	04b7f263          	bgeu	a5,a1,80200b7c <walk+0x66>
    panic("walk");
    80200b3c:	0000a517          	auipc	a0,0xa
    80200b40:	8cc50513          	addi	a0,a0,-1844 # 8020a408 <digits+0x88>
    80200b44:	fffff097          	auipc	ra,0xfffff
    80200b48:	5fe080e7          	jalr	1534(ra) # 80200142 <panic>
    pte_t *pte = &pagetable[PX(level, va)];
    if(*pte & PTE_V) {
      pagetable = (pagetable_t)PTE2PA(*pte);
    } else {
      if(!alloc || (pagetable = (pde_t*)kalloc()) == NULL)
    80200b4c:	060a8663          	beqz	s5,80200bb8 <walk+0xa2>
    80200b50:	00000097          	auipc	ra,0x0
    80200b54:	a0c080e7          	jalr	-1524(ra) # 8020055c <kalloc>
    80200b58:	84aa                	mv	s1,a0
    80200b5a:	c529                	beqz	a0,80200ba4 <walk+0x8e>
        return NULL;
      memset(pagetable, 0, PGSIZE);
    80200b5c:	6605                	lui	a2,0x1
    80200b5e:	4581                	li	a1,0
    80200b60:	00000097          	auipc	ra,0x0
    80200b64:	c04080e7          	jalr	-1020(ra) # 80200764 <memset>
      *pte = PA2PTE(pagetable) | PTE_V;
    80200b68:	00c4d793          	srli	a5,s1,0xc
    80200b6c:	07aa                	slli	a5,a5,0xa
    80200b6e:	0017e793          	ori	a5,a5,1
    80200b72:	00f93023          	sd	a5,0(s2)
  for(int level = 2; level > 0; level--) {
    80200b76:	3a5d                	addiw	s4,s4,-9
    80200b78:	036a0063          	beq	s4,s6,80200b98 <walk+0x82>
    pte_t *pte = &pagetable[PX(level, va)];
    80200b7c:	0149d933          	srl	s2,s3,s4
    80200b80:	1ff97913          	andi	s2,s2,511
    80200b84:	090e                	slli	s2,s2,0x3
    80200b86:	9926                	add	s2,s2,s1
    if(*pte & PTE_V) {
    80200b88:	00093483          	ld	s1,0(s2)
    80200b8c:	0014f793          	andi	a5,s1,1
    80200b90:	dfd5                	beqz	a5,80200b4c <walk+0x36>
      pagetable = (pagetable_t)PTE2PA(*pte);
    80200b92:	80a9                	srli	s1,s1,0xa
    80200b94:	04b2                	slli	s1,s1,0xc
    80200b96:	b7c5                	j	80200b76 <walk+0x60>
    }
  }
  return &pagetable[PX(0, va)];
    80200b98:	00c9d513          	srli	a0,s3,0xc
    80200b9c:	1ff57513          	andi	a0,a0,511
    80200ba0:	050e                	slli	a0,a0,0x3
    80200ba2:	9526                	add	a0,a0,s1
}
    80200ba4:	70e2                	ld	ra,56(sp)
    80200ba6:	7442                	ld	s0,48(sp)
    80200ba8:	74a2                	ld	s1,40(sp)
    80200baa:	7902                	ld	s2,32(sp)
    80200bac:	69e2                	ld	s3,24(sp)
    80200bae:	6a42                	ld	s4,16(sp)
    80200bb0:	6aa2                	ld	s5,8(sp)
    80200bb2:	6b02                	ld	s6,0(sp)
    80200bb4:	6121                	addi	sp,sp,64
    80200bb6:	8082                	ret
        return NULL;
    80200bb8:	4501                	li	a0,0
    80200bba:	b7ed                	j	80200ba4 <walk+0x8e>

0000000080200bbc <walkaddr>:
walkaddr(pagetable_t pagetable, uint64 va)
{
  pte_t *pte;
  uint64 pa;

  if(va >= MAXVA)
    80200bbc:	57fd                	li	a5,-1
    80200bbe:	83e9                	srli	a5,a5,0x1a
    80200bc0:	00b7f463          	bgeu	a5,a1,80200bc8 <walkaddr+0xc>
    return NULL;
    80200bc4:	4501                	li	a0,0
    return NULL;
  if((*pte & PTE_U) == 0)
    return NULL;
  pa = PTE2PA(*pte);
  return pa;
}
    80200bc6:	8082                	ret
{
    80200bc8:	1141                	addi	sp,sp,-16
    80200bca:	e406                	sd	ra,8(sp)
    80200bcc:	e022                	sd	s0,0(sp)
    80200bce:	0800                	addi	s0,sp,16
  pte = walk(pagetable, va, 0);
    80200bd0:	4601                	li	a2,0
    80200bd2:	00000097          	auipc	ra,0x0
    80200bd6:	f44080e7          	jalr	-188(ra) # 80200b16 <walk>
  if(pte == 0)
    80200bda:	c105                	beqz	a0,80200bfa <walkaddr+0x3e>
  if((*pte & PTE_V) == 0)
    80200bdc:	611c                	ld	a5,0(a0)
  if((*pte & PTE_U) == 0)
    80200bde:	0117f693          	andi	a3,a5,17
    80200be2:	4745                	li	a4,17
    return NULL;
    80200be4:	4501                	li	a0,0
  if((*pte & PTE_U) == 0)
    80200be6:	00e68663          	beq	a3,a4,80200bf2 <walkaddr+0x36>
}
    80200bea:	60a2                	ld	ra,8(sp)
    80200bec:	6402                	ld	s0,0(sp)
    80200bee:	0141                	addi	sp,sp,16
    80200bf0:	8082                	ret
  pa = PTE2PA(*pte);
    80200bf2:	00a7d513          	srli	a0,a5,0xa
    80200bf6:	0532                	slli	a0,a0,0xc
  return pa;
    80200bf8:	bfcd                	j	80200bea <walkaddr+0x2e>
    return NULL;
    80200bfa:	4501                	li	a0,0
    80200bfc:	b7fd                	j	80200bea <walkaddr+0x2e>

0000000080200bfe <kwalkaddr>:
  return kwalkaddr(kernel_pagetable, va);
}

uint64
kwalkaddr(pagetable_t kpt, uint64 va)
{
    80200bfe:	1101                	addi	sp,sp,-32
    80200c00:	ec06                	sd	ra,24(sp)
    80200c02:	e822                	sd	s0,16(sp)
    80200c04:	e426                	sd	s1,8(sp)
    80200c06:	1000                	addi	s0,sp,32
  uint64 off = va % PGSIZE;
    80200c08:	03459793          	slli	a5,a1,0x34
    80200c0c:	0347d493          	srli	s1,a5,0x34
  pte_t *pte;
  uint64 pa;
  
  pte = walk(kpt, va, 0);
    80200c10:	4601                	li	a2,0
    80200c12:	00000097          	auipc	ra,0x0
    80200c16:	f04080e7          	jalr	-252(ra) # 80200b16 <walk>
  if(pte == 0)
    80200c1a:	cd09                	beqz	a0,80200c34 <kwalkaddr+0x36>
    panic("kvmpa");
  if((*pte & PTE_V) == 0)
    80200c1c:	6108                	ld	a0,0(a0)
    80200c1e:	00157793          	andi	a5,a0,1
    80200c22:	c38d                	beqz	a5,80200c44 <kwalkaddr+0x46>
    panic("kvmpa");
  pa = PTE2PA(*pte);
    80200c24:	8129                	srli	a0,a0,0xa
    80200c26:	0532                	slli	a0,a0,0xc
  return pa+off;
}
    80200c28:	9526                	add	a0,a0,s1
    80200c2a:	60e2                	ld	ra,24(sp)
    80200c2c:	6442                	ld	s0,16(sp)
    80200c2e:	64a2                	ld	s1,8(sp)
    80200c30:	6105                	addi	sp,sp,32
    80200c32:	8082                	ret
    panic("kvmpa");
    80200c34:	00009517          	auipc	a0,0x9
    80200c38:	7dc50513          	addi	a0,a0,2012 # 8020a410 <digits+0x90>
    80200c3c:	fffff097          	auipc	ra,0xfffff
    80200c40:	506080e7          	jalr	1286(ra) # 80200142 <panic>
    panic("kvmpa");
    80200c44:	00009517          	auipc	a0,0x9
    80200c48:	7cc50513          	addi	a0,a0,1996 # 8020a410 <digits+0x90>
    80200c4c:	fffff097          	auipc	ra,0xfffff
    80200c50:	4f6080e7          	jalr	1270(ra) # 80200142 <panic>

0000000080200c54 <kvmpa>:
{
    80200c54:	1141                	addi	sp,sp,-16
    80200c56:	e406                	sd	ra,8(sp)
    80200c58:	e022                	sd	s0,0(sp)
    80200c5a:	0800                	addi	s0,sp,16
    80200c5c:	85aa                	mv	a1,a0
  return kwalkaddr(kernel_pagetable, va);
    80200c5e:	00016517          	auipc	a0,0x16
    80200c62:	3fa53503          	ld	a0,1018(a0) # 80217058 <kernel_pagetable>
    80200c66:	00000097          	auipc	ra,0x0
    80200c6a:	f98080e7          	jalr	-104(ra) # 80200bfe <kwalkaddr>
}
    80200c6e:	60a2                	ld	ra,8(sp)
    80200c70:	6402                	ld	s0,0(sp)
    80200c72:	0141                	addi	sp,sp,16
    80200c74:	8082                	ret

0000000080200c76 <mappages>:
// physical addresses starting at pa. va and size might not
// be page-aligned. Returns 0 on success, -1 if walk() couldn't
// allocate a needed page-table page.
int
mappages(pagetable_t pagetable, uint64 va, uint64 size, uint64 pa, int perm)
{
    80200c76:	715d                	addi	sp,sp,-80
    80200c78:	e486                	sd	ra,72(sp)
    80200c7a:	e0a2                	sd	s0,64(sp)
    80200c7c:	fc26                	sd	s1,56(sp)
    80200c7e:	f84a                	sd	s2,48(sp)
    80200c80:	f44e                	sd	s3,40(sp)
    80200c82:	f052                	sd	s4,32(sp)
    80200c84:	ec56                	sd	s5,24(sp)
    80200c86:	e85a                	sd	s6,16(sp)
    80200c88:	e45e                	sd	s7,8(sp)
    80200c8a:	0880                	addi	s0,sp,80
    80200c8c:	8aaa                	mv	s5,a0
    80200c8e:	8b3a                	mv	s6,a4
  uint64 a, last;
  pte_t *pte;

  a = PGROUNDDOWN(va);
    80200c90:	777d                	lui	a4,0xfffff
    80200c92:	00e5f7b3          	and	a5,a1,a4
  last = PGROUNDDOWN(va + size - 1);
    80200c96:	167d                	addi	a2,a2,-1
    80200c98:	00b609b3          	add	s3,a2,a1
    80200c9c:	00e9f9b3          	and	s3,s3,a4
  a = PGROUNDDOWN(va);
    80200ca0:	893e                	mv	s2,a5
    80200ca2:	40f68a33          	sub	s4,a3,a5
    if(*pte & PTE_V)
      panic("remap");
    *pte = PA2PTE(pa) | perm | PTE_V;
    if(a == last)
      break;
    a += PGSIZE;
    80200ca6:	6b85                	lui	s7,0x1
    80200ca8:	012a04b3          	add	s1,s4,s2
    if((pte = walk(pagetable, a, 1)) == NULL)
    80200cac:	4605                	li	a2,1
    80200cae:	85ca                	mv	a1,s2
    80200cb0:	8556                	mv	a0,s5
    80200cb2:	00000097          	auipc	ra,0x0
    80200cb6:	e64080e7          	jalr	-412(ra) # 80200b16 <walk>
    80200cba:	c51d                	beqz	a0,80200ce8 <mappages+0x72>
    if(*pte & PTE_V)
    80200cbc:	611c                	ld	a5,0(a0)
    80200cbe:	8b85                	andi	a5,a5,1
    80200cc0:	ef81                	bnez	a5,80200cd8 <mappages+0x62>
    *pte = PA2PTE(pa) | perm | PTE_V;
    80200cc2:	80b1                	srli	s1,s1,0xc
    80200cc4:	04aa                	slli	s1,s1,0xa
    80200cc6:	0164e4b3          	or	s1,s1,s6
    80200cca:	0014e493          	ori	s1,s1,1
    80200cce:	e104                	sd	s1,0(a0)
    if(a == last)
    80200cd0:	03390863          	beq	s2,s3,80200d00 <mappages+0x8a>
    a += PGSIZE;
    80200cd4:	995e                	add	s2,s2,s7
    if((pte = walk(pagetable, a, 1)) == NULL)
    80200cd6:	bfc9                	j	80200ca8 <mappages+0x32>
      panic("remap");
    80200cd8:	00009517          	auipc	a0,0x9
    80200cdc:	74050513          	addi	a0,a0,1856 # 8020a418 <digits+0x98>
    80200ce0:	fffff097          	auipc	ra,0xfffff
    80200ce4:	462080e7          	jalr	1122(ra) # 80200142 <panic>
      return -1;
    80200ce8:	557d                	li	a0,-1
    pa += PGSIZE;
  }
  return 0;
}
    80200cea:	60a6                	ld	ra,72(sp)
    80200cec:	6406                	ld	s0,64(sp)
    80200cee:	74e2                	ld	s1,56(sp)
    80200cf0:	7942                	ld	s2,48(sp)
    80200cf2:	79a2                	ld	s3,40(sp)
    80200cf4:	7a02                	ld	s4,32(sp)
    80200cf6:	6ae2                	ld	s5,24(sp)
    80200cf8:	6b42                	ld	s6,16(sp)
    80200cfa:	6ba2                	ld	s7,8(sp)
    80200cfc:	6161                	addi	sp,sp,80
    80200cfe:	8082                	ret
  return 0;
    80200d00:	4501                	li	a0,0
    80200d02:	b7e5                	j	80200cea <mappages+0x74>

0000000080200d04 <kvmmap>:
{
    80200d04:	1141                	addi	sp,sp,-16
    80200d06:	e406                	sd	ra,8(sp)
    80200d08:	e022                	sd	s0,0(sp)
    80200d0a:	0800                	addi	s0,sp,16
    80200d0c:	8736                	mv	a4,a3
  if(mappages(kernel_pagetable, va, sz, pa, perm) != 0)
    80200d0e:	86ae                	mv	a3,a1
    80200d10:	85aa                	mv	a1,a0
    80200d12:	00016517          	auipc	a0,0x16
    80200d16:	34653503          	ld	a0,838(a0) # 80217058 <kernel_pagetable>
    80200d1a:	00000097          	auipc	ra,0x0
    80200d1e:	f5c080e7          	jalr	-164(ra) # 80200c76 <mappages>
    80200d22:	e509                	bnez	a0,80200d2c <kvmmap+0x28>
}
    80200d24:	60a2                	ld	ra,8(sp)
    80200d26:	6402                	ld	s0,0(sp)
    80200d28:	0141                	addi	sp,sp,16
    80200d2a:	8082                	ret
    panic("kvmmap");
    80200d2c:	00009517          	auipc	a0,0x9
    80200d30:	6f450513          	addi	a0,a0,1780 # 8020a420 <digits+0xa0>
    80200d34:	fffff097          	auipc	ra,0xfffff
    80200d38:	40e080e7          	jalr	1038(ra) # 80200142 <panic>

0000000080200d3c <kvminit>:
{
    80200d3c:	1101                	addi	sp,sp,-32
    80200d3e:	ec06                	sd	ra,24(sp)
    80200d40:	e822                	sd	s0,16(sp)
    80200d42:	e426                	sd	s1,8(sp)
    80200d44:	1000                	addi	s0,sp,32
  kernel_pagetable = (pagetable_t) kalloc();
    80200d46:	00000097          	auipc	ra,0x0
    80200d4a:	816080e7          	jalr	-2026(ra) # 8020055c <kalloc>
    80200d4e:	00016797          	auipc	a5,0x16
    80200d52:	30a7b523          	sd	a0,778(a5) # 80217058 <kernel_pagetable>
  memset(kernel_pagetable, 0, PGSIZE);
    80200d56:	6605                	lui	a2,0x1
    80200d58:	4581                	li	a1,0
    80200d5a:	00000097          	auipc	ra,0x0
    80200d5e:	a0a080e7          	jalr	-1526(ra) # 80200764 <memset>
  kvmmap(UART_V, UART, PGSIZE, PTE_R | PTE_W);
    80200d62:	4699                	li	a3,6
    80200d64:	6605                	lui	a2,0x1
    80200d66:	100005b7          	lui	a1,0x10000
    80200d6a:	3f100513          	li	a0,1009
    80200d6e:	0572                	slli	a0,a0,0x1c
    80200d70:	00000097          	auipc	ra,0x0
    80200d74:	f94080e7          	jalr	-108(ra) # 80200d04 <kvmmap>
  kvmmap(VIRTIO0_V, VIRTIO0, PGSIZE, PTE_R | PTE_W);
    80200d78:	4699                	li	a3,6
    80200d7a:	6605                	lui	a2,0x1
    80200d7c:	100015b7          	lui	a1,0x10001
    80200d80:	03f10537          	lui	a0,0x3f10
    80200d84:	0505                	addi	a0,a0,1
    80200d86:	0532                	slli	a0,a0,0xc
    80200d88:	00000097          	auipc	ra,0x0
    80200d8c:	f7c080e7          	jalr	-132(ra) # 80200d04 <kvmmap>
  kvmmap(CLINT_V, CLINT, 0x10000, PTE_R | PTE_W);
    80200d90:	4699                	li	a3,6
    80200d92:	6641                	lui	a2,0x10
    80200d94:	020005b7          	lui	a1,0x2000
    80200d98:	01f81537          	lui	a0,0x1f81
    80200d9c:	0536                	slli	a0,a0,0xd
    80200d9e:	00000097          	auipc	ra,0x0
    80200da2:	f66080e7          	jalr	-154(ra) # 80200d04 <kvmmap>
  kvmmap(PLIC_V, PLIC, 0x4000, PTE_R | PTE_W);
    80200da6:	4699                	li	a3,6
    80200da8:	6611                	lui	a2,0x4
    80200daa:	0c0005b7          	lui	a1,0xc000
    80200dae:	00fc3537          	lui	a0,0xfc3
    80200db2:	053a                	slli	a0,a0,0xe
    80200db4:	00000097          	auipc	ra,0x0
    80200db8:	f50080e7          	jalr	-176(ra) # 80200d04 <kvmmap>
  kvmmap(PLIC_V + 0x200000, PLIC + 0x200000, 0x4000, PTE_R | PTE_W);
    80200dbc:	4699                	li	a3,6
    80200dbe:	6611                	lui	a2,0x4
    80200dc0:	0c2005b7          	lui	a1,0xc200
    80200dc4:	1f861537          	lui	a0,0x1f861
    80200dc8:	0526                	slli	a0,a0,0x9
    80200dca:	00000097          	auipc	ra,0x0
    80200dce:	f3a080e7          	jalr	-198(ra) # 80200d04 <kvmmap>
  kvmmap(KERNBASE, KERNBASE, (uint64)etext - KERNBASE, PTE_R | PTE_X);
    80200dd2:	0000d497          	auipc	s1,0xd
    80200dd6:	3064b483          	ld	s1,774(s1) # 8020e0d8 <_GLOBAL_OFFSET_TABLE_+0x28>
    80200dda:	46a9                	li	a3,10
    80200ddc:	bff00613          	li	a2,-1025
    80200de0:	0656                	slli	a2,a2,0x15
    80200de2:	9626                	add	a2,a2,s1
    80200de4:	40100593          	li	a1,1025
    80200de8:	05d6                	slli	a1,a1,0x15
    80200dea:	852e                	mv	a0,a1
    80200dec:	00000097          	auipc	ra,0x0
    80200df0:	f18080e7          	jalr	-232(ra) # 80200d04 <kvmmap>
  kvmmap((uint64)etext, (uint64)etext, PHYSTOP - (uint64)etext, PTE_R | PTE_W);
    80200df4:	4699                	li	a3,6
    80200df6:	40300613          	li	a2,1027
    80200dfa:	0656                	slli	a2,a2,0x15
    80200dfc:	8e05                	sub	a2,a2,s1
    80200dfe:	85a6                	mv	a1,s1
    80200e00:	8526                	mv	a0,s1
    80200e02:	00000097          	auipc	ra,0x0
    80200e06:	f02080e7          	jalr	-254(ra) # 80200d04 <kvmmap>
  kvmmap(TRAMPOLINE, (uint64)trampoline, PGSIZE, PTE_R | PTE_X);
    80200e0a:	46a9                	li	a3,10
    80200e0c:	6605                	lui	a2,0x1
    80200e0e:	0000d597          	auipc	a1,0xd
    80200e12:	2aa5b583          	ld	a1,682(a1) # 8020e0b8 <_GLOBAL_OFFSET_TABLE_+0x8>
    80200e16:	04000537          	lui	a0,0x4000
    80200e1a:	157d                	addi	a0,a0,-1
    80200e1c:	0532                	slli	a0,a0,0xc
    80200e1e:	00000097          	auipc	ra,0x0
    80200e22:	ee6080e7          	jalr	-282(ra) # 80200d04 <kvmmap>
}
    80200e26:	60e2                	ld	ra,24(sp)
    80200e28:	6442                	ld	s0,16(sp)
    80200e2a:	64a2                	ld	s1,8(sp)
    80200e2c:	6105                	addi	sp,sp,32
    80200e2e:	8082                	ret

0000000080200e30 <vmunmap>:
// Remove npages of mappings starting from va. va must be
// page-aligned. The mappings must exist.
// Optionally free the physical memory.
void
vmunmap(pagetable_t pagetable, uint64 va, uint64 npages, int do_free)
{
    80200e30:	715d                	addi	sp,sp,-80
    80200e32:	e486                	sd	ra,72(sp)
    80200e34:	e0a2                	sd	s0,64(sp)
    80200e36:	fc26                	sd	s1,56(sp)
    80200e38:	f84a                	sd	s2,48(sp)
    80200e3a:	f44e                	sd	s3,40(sp)
    80200e3c:	f052                	sd	s4,32(sp)
    80200e3e:	ec56                	sd	s5,24(sp)
    80200e40:	e85a                	sd	s6,16(sp)
    80200e42:	e45e                	sd	s7,8(sp)
    80200e44:	0880                	addi	s0,sp,80
  uint64 a;
  pte_t *pte;

  if((va % PGSIZE) != 0)
    80200e46:	03459793          	slli	a5,a1,0x34
    80200e4a:	e795                	bnez	a5,80200e76 <vmunmap+0x46>
    80200e4c:	8a2a                	mv	s4,a0
    80200e4e:	892e                	mv	s2,a1
    80200e50:	8ab6                	mv	s5,a3
    panic("vmunmap: not aligned");

  for(a = va; a < va + npages*PGSIZE; a += PGSIZE){
    80200e52:	0632                	slli	a2,a2,0xc
    80200e54:	00b609b3          	add	s3,a2,a1
    if((pte = walk(pagetable, a, 0)) == 0)
      panic("vmunmap: walk");
    if((*pte & PTE_V) == 0)
      panic("vmunmap: not mapped");
    if(PTE_FLAGS(*pte) == PTE_V)
    80200e58:	4b85                	li	s7,1
  for(a = va; a < va + npages*PGSIZE; a += PGSIZE){
    80200e5a:	6b05                	lui	s6,0x1
    80200e5c:	0735e863          	bltu	a1,s3,80200ecc <vmunmap+0x9c>
      uint64 pa = PTE2PA(*pte);
      kfree((void*)pa);
    }
    *pte = 0;
  }
}
    80200e60:	60a6                	ld	ra,72(sp)
    80200e62:	6406                	ld	s0,64(sp)
    80200e64:	74e2                	ld	s1,56(sp)
    80200e66:	7942                	ld	s2,48(sp)
    80200e68:	79a2                	ld	s3,40(sp)
    80200e6a:	7a02                	ld	s4,32(sp)
    80200e6c:	6ae2                	ld	s5,24(sp)
    80200e6e:	6b42                	ld	s6,16(sp)
    80200e70:	6ba2                	ld	s7,8(sp)
    80200e72:	6161                	addi	sp,sp,80
    80200e74:	8082                	ret
    panic("vmunmap: not aligned");
    80200e76:	00009517          	auipc	a0,0x9
    80200e7a:	5b250513          	addi	a0,a0,1458 # 8020a428 <digits+0xa8>
    80200e7e:	fffff097          	auipc	ra,0xfffff
    80200e82:	2c4080e7          	jalr	708(ra) # 80200142 <panic>
      panic("vmunmap: walk");
    80200e86:	00009517          	auipc	a0,0x9
    80200e8a:	5ba50513          	addi	a0,a0,1466 # 8020a440 <digits+0xc0>
    80200e8e:	fffff097          	auipc	ra,0xfffff
    80200e92:	2b4080e7          	jalr	692(ra) # 80200142 <panic>
      panic("vmunmap: not mapped");
    80200e96:	00009517          	auipc	a0,0x9
    80200e9a:	5ba50513          	addi	a0,a0,1466 # 8020a450 <digits+0xd0>
    80200e9e:	fffff097          	auipc	ra,0xfffff
    80200ea2:	2a4080e7          	jalr	676(ra) # 80200142 <panic>
      panic("vmunmap: not a leaf");
    80200ea6:	00009517          	auipc	a0,0x9
    80200eaa:	5c250513          	addi	a0,a0,1474 # 8020a468 <digits+0xe8>
    80200eae:	fffff097          	auipc	ra,0xfffff
    80200eb2:	294080e7          	jalr	660(ra) # 80200142 <panic>
      uint64 pa = PTE2PA(*pte);
    80200eb6:	8129                	srli	a0,a0,0xa
      kfree((void*)pa);
    80200eb8:	0532                	slli	a0,a0,0xc
    80200eba:	fffff097          	auipc	ra,0xfffff
    80200ebe:	58a080e7          	jalr	1418(ra) # 80200444 <kfree>
    *pte = 0;
    80200ec2:	0004b023          	sd	zero,0(s1)
  for(a = va; a < va + npages*PGSIZE; a += PGSIZE){
    80200ec6:	995a                	add	s2,s2,s6
    80200ec8:	f9397ce3          	bgeu	s2,s3,80200e60 <vmunmap+0x30>
    if((pte = walk(pagetable, a, 0)) == 0)
    80200ecc:	4601                	li	a2,0
    80200ece:	85ca                	mv	a1,s2
    80200ed0:	8552                	mv	a0,s4
    80200ed2:	00000097          	auipc	ra,0x0
    80200ed6:	c44080e7          	jalr	-956(ra) # 80200b16 <walk>
    80200eda:	84aa                	mv	s1,a0
    80200edc:	d54d                	beqz	a0,80200e86 <vmunmap+0x56>
    if((*pte & PTE_V) == 0)
    80200ede:	6108                	ld	a0,0(a0)
    80200ee0:	00157793          	andi	a5,a0,1
    80200ee4:	dbcd                	beqz	a5,80200e96 <vmunmap+0x66>
    if(PTE_FLAGS(*pte) == PTE_V)
    80200ee6:	3ff57793          	andi	a5,a0,1023
    80200eea:	fb778ee3          	beq	a5,s7,80200ea6 <vmunmap+0x76>
    if(do_free){
    80200eee:	fc0a8ae3          	beqz	s5,80200ec2 <vmunmap+0x92>
    80200ef2:	b7d1                	j	80200eb6 <vmunmap+0x86>

0000000080200ef4 <uvmcreate>:

// create an empty user page table.
// returns 0 if out of memory.
pagetable_t
uvmcreate()
{
    80200ef4:	1101                	addi	sp,sp,-32
    80200ef6:	ec06                	sd	ra,24(sp)
    80200ef8:	e822                	sd	s0,16(sp)
    80200efa:	e426                	sd	s1,8(sp)
    80200efc:	1000                	addi	s0,sp,32
  pagetable_t pagetable;
  pagetable = (pagetable_t) kalloc();
    80200efe:	fffff097          	auipc	ra,0xfffff
    80200f02:	65e080e7          	jalr	1630(ra) # 8020055c <kalloc>
    80200f06:	84aa                	mv	s1,a0
  if(pagetable == NULL)
    80200f08:	c519                	beqz	a0,80200f16 <uvmcreate+0x22>
    return NULL;
  memset(pagetable, 0, PGSIZE);
    80200f0a:	6605                	lui	a2,0x1
    80200f0c:	4581                	li	a1,0
    80200f0e:	00000097          	auipc	ra,0x0
    80200f12:	856080e7          	jalr	-1962(ra) # 80200764 <memset>
  return pagetable;
}
    80200f16:	8526                	mv	a0,s1
    80200f18:	60e2                	ld	ra,24(sp)
    80200f1a:	6442                	ld	s0,16(sp)
    80200f1c:	64a2                	ld	s1,8(sp)
    80200f1e:	6105                	addi	sp,sp,32
    80200f20:	8082                	ret

0000000080200f22 <uvminit>:
// Load the user initcode into address 0 of pagetable,
// for the very first process.
// sz must be less than a page.
void
uvminit(pagetable_t pagetable, pagetable_t kpagetable, uchar *src, uint sz)
{
    80200f22:	7139                	addi	sp,sp,-64
    80200f24:	fc06                	sd	ra,56(sp)
    80200f26:	f822                	sd	s0,48(sp)
    80200f28:	f426                	sd	s1,40(sp)
    80200f2a:	f04a                	sd	s2,32(sp)
    80200f2c:	ec4e                	sd	s3,24(sp)
    80200f2e:	e852                	sd	s4,16(sp)
    80200f30:	e456                	sd	s5,8(sp)
    80200f32:	0080                	addi	s0,sp,64
  char *mem;

  if(sz >= PGSIZE)
    80200f34:	6785                	lui	a5,0x1
    80200f36:	06f6f363          	bgeu	a3,a5,80200f9c <uvminit+0x7a>
    80200f3a:	8aaa                	mv	s5,a0
    80200f3c:	8a2e                	mv	s4,a1
    80200f3e:	89b2                	mv	s3,a2
    80200f40:	8936                	mv	s2,a3
    panic("inituvm: more than a page");
  mem = kalloc();
    80200f42:	fffff097          	auipc	ra,0xfffff
    80200f46:	61a080e7          	jalr	1562(ra) # 8020055c <kalloc>
    80200f4a:	84aa                	mv	s1,a0
  // printf("[uvminit]kalloc: %p\n", mem);
  memset(mem, 0, PGSIZE);
    80200f4c:	6605                	lui	a2,0x1
    80200f4e:	4581                	li	a1,0
    80200f50:	00000097          	auipc	ra,0x0
    80200f54:	814080e7          	jalr	-2028(ra) # 80200764 <memset>
  mappages(pagetable, 0, PGSIZE, (uint64)mem, PTE_W|PTE_R|PTE_X|PTE_U);
    80200f58:	4779                	li	a4,30
    80200f5a:	86a6                	mv	a3,s1
    80200f5c:	6605                	lui	a2,0x1
    80200f5e:	4581                	li	a1,0
    80200f60:	8556                	mv	a0,s5
    80200f62:	00000097          	auipc	ra,0x0
    80200f66:	d14080e7          	jalr	-748(ra) # 80200c76 <mappages>
  mappages(kpagetable, 0, PGSIZE, (uint64)mem, PTE_W|PTE_R|PTE_X);
    80200f6a:	4739                	li	a4,14
    80200f6c:	86a6                	mv	a3,s1
    80200f6e:	6605                	lui	a2,0x1
    80200f70:	4581                	li	a1,0
    80200f72:	8552                	mv	a0,s4
    80200f74:	00000097          	auipc	ra,0x0
    80200f78:	d02080e7          	jalr	-766(ra) # 80200c76 <mappages>
  memmove(mem, src, sz);
    80200f7c:	864a                	mv	a2,s2
    80200f7e:	85ce                	mv	a1,s3
    80200f80:	8526                	mv	a0,s1
    80200f82:	00000097          	auipc	ra,0x0
    80200f86:	842080e7          	jalr	-1982(ra) # 802007c4 <memmove>
  // for (int i = 0; i < sz; i ++) {
  //   printf("[uvminit]mem: %p, %x\n", mem + i, mem[i]);
  // }
}
    80200f8a:	70e2                	ld	ra,56(sp)
    80200f8c:	7442                	ld	s0,48(sp)
    80200f8e:	74a2                	ld	s1,40(sp)
    80200f90:	7902                	ld	s2,32(sp)
    80200f92:	69e2                	ld	s3,24(sp)
    80200f94:	6a42                	ld	s4,16(sp)
    80200f96:	6aa2                	ld	s5,8(sp)
    80200f98:	6121                	addi	sp,sp,64
    80200f9a:	8082                	ret
    panic("inituvm: more than a page");
    80200f9c:	00009517          	auipc	a0,0x9
    80200fa0:	4e450513          	addi	a0,a0,1252 # 8020a480 <digits+0x100>
    80200fa4:	fffff097          	auipc	ra,0xfffff
    80200fa8:	19e080e7          	jalr	414(ra) # 80200142 <panic>

0000000080200fac <uvmdealloc>:
// newsz.  oldsz and newsz need not be page-aligned, nor does newsz
// need to be less than oldsz.  oldsz can be larger than the actual
// process size.  Returns the new process size.
uint64
uvmdealloc(pagetable_t pagetable, pagetable_t kpagetable, uint64 oldsz, uint64 newsz)
{
    80200fac:	7179                	addi	sp,sp,-48
    80200fae:	f406                	sd	ra,40(sp)
    80200fb0:	f022                	sd	s0,32(sp)
    80200fb2:	ec26                	sd	s1,24(sp)
    80200fb4:	e84a                	sd	s2,16(sp)
    80200fb6:	e44e                	sd	s3,8(sp)
    80200fb8:	e052                	sd	s4,0(sp)
    80200fba:	1800                	addi	s0,sp,48
  if(newsz >= oldsz)
    return oldsz;
    80200fbc:	8932                	mv	s2,a2
  if(newsz >= oldsz)
    80200fbe:	02c6f063          	bgeu	a3,a2,80200fde <uvmdealloc+0x32>
    80200fc2:	89aa                	mv	s3,a0
    80200fc4:	852e                	mv	a0,a1
    80200fc6:	8936                	mv	s2,a3

  if(PGROUNDUP(newsz) < PGROUNDUP(oldsz)){
    80200fc8:	6785                	lui	a5,0x1
    80200fca:	17fd                	addi	a5,a5,-1
    80200fcc:	00f68a33          	add	s4,a3,a5
    80200fd0:	777d                	lui	a4,0xfffff
    80200fd2:	00ea7a33          	and	s4,s4,a4
    80200fd6:	963e                	add	a2,a2,a5
    80200fd8:	8e79                	and	a2,a2,a4
    80200fda:	00ca6b63          	bltu	s4,a2,80200ff0 <uvmdealloc+0x44>
    vmunmap(kpagetable, PGROUNDUP(newsz), npages, 0);
    vmunmap(pagetable, PGROUNDUP(newsz), npages, 1);
  }

  return newsz;
}
    80200fde:	854a                	mv	a0,s2
    80200fe0:	70a2                	ld	ra,40(sp)
    80200fe2:	7402                	ld	s0,32(sp)
    80200fe4:	64e2                	ld	s1,24(sp)
    80200fe6:	6942                	ld	s2,16(sp)
    80200fe8:	69a2                	ld	s3,8(sp)
    80200fea:	6a02                	ld	s4,0(sp)
    80200fec:	6145                	addi	sp,sp,48
    80200fee:	8082                	ret
    int npages = (PGROUNDUP(oldsz) - PGROUNDUP(newsz)) / PGSIZE;
    80200ff0:	414604b3          	sub	s1,a2,s4
    80200ff4:	80b1                	srli	s1,s1,0xc
    vmunmap(kpagetable, PGROUNDUP(newsz), npages, 0);
    80200ff6:	2481                	sext.w	s1,s1
    80200ff8:	4681                	li	a3,0
    80200ffa:	8626                	mv	a2,s1
    80200ffc:	85d2                	mv	a1,s4
    80200ffe:	00000097          	auipc	ra,0x0
    80201002:	e32080e7          	jalr	-462(ra) # 80200e30 <vmunmap>
    vmunmap(pagetable, PGROUNDUP(newsz), npages, 1);
    80201006:	4685                	li	a3,1
    80201008:	8626                	mv	a2,s1
    8020100a:	85d2                	mv	a1,s4
    8020100c:	854e                	mv	a0,s3
    8020100e:	00000097          	auipc	ra,0x0
    80201012:	e22080e7          	jalr	-478(ra) # 80200e30 <vmunmap>
    80201016:	b7e1                	j	80200fde <uvmdealloc+0x32>

0000000080201018 <uvmalloc>:
  if(newsz < oldsz)
    80201018:	0ec6e763          	bltu	a3,a2,80201106 <uvmalloc+0xee>
{
    8020101c:	7139                	addi	sp,sp,-64
    8020101e:	fc06                	sd	ra,56(sp)
    80201020:	f822                	sd	s0,48(sp)
    80201022:	f426                	sd	s1,40(sp)
    80201024:	f04a                	sd	s2,32(sp)
    80201026:	ec4e                	sd	s3,24(sp)
    80201028:	e852                	sd	s4,16(sp)
    8020102a:	e456                	sd	s5,8(sp)
    8020102c:	e05a                	sd	s6,0(sp)
    8020102e:	0080                	addi	s0,sp,64
    80201030:	8a2a                	mv	s4,a0
    80201032:	8aae                	mv	s5,a1
    80201034:	8b36                	mv	s6,a3
  oldsz = PGROUNDUP(oldsz);
    80201036:	6985                	lui	s3,0x1
    80201038:	19fd                	addi	s3,s3,-1
    8020103a:	964e                	add	a2,a2,s3
    8020103c:	79fd                	lui	s3,0xfffff
    8020103e:	013679b3          	and	s3,a2,s3
  for(a = oldsz; a < newsz; a += PGSIZE){
    80201042:	0cd9f463          	bgeu	s3,a3,8020110a <uvmalloc+0xf2>
    80201046:	894e                	mv	s2,s3
    mem = kalloc();
    80201048:	fffff097          	auipc	ra,0xfffff
    8020104c:	514080e7          	jalr	1300(ra) # 8020055c <kalloc>
    80201050:	84aa                	mv	s1,a0
    if(mem == NULL){
    80201052:	c129                	beqz	a0,80201094 <uvmalloc+0x7c>
    memset(mem, 0, PGSIZE);
    80201054:	6605                	lui	a2,0x1
    80201056:	4581                	li	a1,0
    80201058:	fffff097          	auipc	ra,0xfffff
    8020105c:	70c080e7          	jalr	1804(ra) # 80200764 <memset>
    if (mappages(pagetable, a, PGSIZE, (uint64)mem, PTE_W|PTE_X|PTE_R|PTE_U) != 0) {
    80201060:	4779                	li	a4,30
    80201062:	86a6                	mv	a3,s1
    80201064:	6605                	lui	a2,0x1
    80201066:	85ca                	mv	a1,s2
    80201068:	8552                	mv	a0,s4
    8020106a:	00000097          	auipc	ra,0x0
    8020106e:	c0c080e7          	jalr	-1012(ra) # 80200c76 <mappages>
    80201072:	e521                	bnez	a0,802010ba <uvmalloc+0xa2>
    if (mappages(kpagetable, a, PGSIZE, (uint64)mem, PTE_W|PTE_X|PTE_R) != 0){
    80201074:	4739                	li	a4,14
    80201076:	86a6                	mv	a3,s1
    80201078:	6605                	lui	a2,0x1
    8020107a:	85ca                	mv	a1,s2
    8020107c:	8556                	mv	a0,s5
    8020107e:	00000097          	auipc	ra,0x0
    80201082:	bf8080e7          	jalr	-1032(ra) # 80200c76 <mappages>
    80201086:	e929                	bnez	a0,802010d8 <uvmalloc+0xc0>
  for(a = oldsz; a < newsz; a += PGSIZE){
    80201088:	6785                	lui	a5,0x1
    8020108a:	993e                	add	s2,s2,a5
    8020108c:	fb696ee3          	bltu	s2,s6,80201048 <uvmalloc+0x30>
  return newsz;
    80201090:	855a                	mv	a0,s6
    80201092:	a811                	j	802010a6 <uvmalloc+0x8e>
      uvmdealloc(pagetable, kpagetable, a, oldsz);
    80201094:	86ce                	mv	a3,s3
    80201096:	864a                	mv	a2,s2
    80201098:	85d6                	mv	a1,s5
    8020109a:	8552                	mv	a0,s4
    8020109c:	00000097          	auipc	ra,0x0
    802010a0:	f10080e7          	jalr	-240(ra) # 80200fac <uvmdealloc>
      return 0;
    802010a4:	4501                	li	a0,0
}
    802010a6:	70e2                	ld	ra,56(sp)
    802010a8:	7442                	ld	s0,48(sp)
    802010aa:	74a2                	ld	s1,40(sp)
    802010ac:	7902                	ld	s2,32(sp)
    802010ae:	69e2                	ld	s3,24(sp)
    802010b0:	6a42                	ld	s4,16(sp)
    802010b2:	6aa2                	ld	s5,8(sp)
    802010b4:	6b02                	ld	s6,0(sp)
    802010b6:	6121                	addi	sp,sp,64
    802010b8:	8082                	ret
      kfree(mem);
    802010ba:	8526                	mv	a0,s1
    802010bc:	fffff097          	auipc	ra,0xfffff
    802010c0:	388080e7          	jalr	904(ra) # 80200444 <kfree>
      uvmdealloc(pagetable, kpagetable, a, oldsz);
    802010c4:	86ce                	mv	a3,s3
    802010c6:	864a                	mv	a2,s2
    802010c8:	85d6                	mv	a1,s5
    802010ca:	8552                	mv	a0,s4
    802010cc:	00000097          	auipc	ra,0x0
    802010d0:	ee0080e7          	jalr	-288(ra) # 80200fac <uvmdealloc>
      return 0;
    802010d4:	4501                	li	a0,0
    802010d6:	bfc1                	j	802010a6 <uvmalloc+0x8e>
      int npages = (a - oldsz) / PGSIZE;
    802010d8:	41390633          	sub	a2,s2,s3
    802010dc:	8231                	srli	a2,a2,0xc
    802010de:	0006049b          	sext.w	s1,a2
      vmunmap(pagetable, oldsz, npages + 1, 1);   // plus the page allocated above.
    802010e2:	4685                	li	a3,1
    802010e4:	2605                	addiw	a2,a2,1
    802010e6:	85ce                	mv	a1,s3
    802010e8:	8552                	mv	a0,s4
    802010ea:	00000097          	auipc	ra,0x0
    802010ee:	d46080e7          	jalr	-698(ra) # 80200e30 <vmunmap>
      vmunmap(kpagetable, oldsz, npages, 0);
    802010f2:	4681                	li	a3,0
    802010f4:	8626                	mv	a2,s1
    802010f6:	85ce                	mv	a1,s3
    802010f8:	8556                	mv	a0,s5
    802010fa:	00000097          	auipc	ra,0x0
    802010fe:	d36080e7          	jalr	-714(ra) # 80200e30 <vmunmap>
      return 0;
    80201102:	4501                	li	a0,0
    80201104:	b74d                	j	802010a6 <uvmalloc+0x8e>
    return oldsz;
    80201106:	8532                	mv	a0,a2
}
    80201108:	8082                	ret
  return newsz;
    8020110a:	8536                	mv	a0,a3
    8020110c:	bf69                	j	802010a6 <uvmalloc+0x8e>

000000008020110e <freewalk>:

// Recursively free page-table pages.
// All leaf mappings must already have been removed.
void
freewalk(pagetable_t pagetable)
{
    8020110e:	7179                	addi	sp,sp,-48
    80201110:	f406                	sd	ra,40(sp)
    80201112:	f022                	sd	s0,32(sp)
    80201114:	ec26                	sd	s1,24(sp)
    80201116:	e84a                	sd	s2,16(sp)
    80201118:	e44e                	sd	s3,8(sp)
    8020111a:	e052                	sd	s4,0(sp)
    8020111c:	1800                	addi	s0,sp,48
    8020111e:	8a2a                	mv	s4,a0
  // there are 2^9 = 512 PTEs in a page table.
  for(int i = 0; i < 512; i++){
    80201120:	84aa                	mv	s1,a0
    80201122:	6905                	lui	s2,0x1
    80201124:	992a                	add	s2,s2,a0
    pte_t pte = pagetable[i];
    if((pte & PTE_V) && (pte & (PTE_R|PTE_W|PTE_X)) == 0){
    80201126:	4985                	li	s3,1
    80201128:	a821                	j	80201140 <freewalk+0x32>
      // this PTE points to a lower-level page table.
      uint64 child = PTE2PA(pte);
    8020112a:	8129                	srli	a0,a0,0xa
      freewalk((pagetable_t)child);
    8020112c:	0532                	slli	a0,a0,0xc
    8020112e:	00000097          	auipc	ra,0x0
    80201132:	fe0080e7          	jalr	-32(ra) # 8020110e <freewalk>
      pagetable[i] = 0;
    80201136:	0004b023          	sd	zero,0(s1)
  for(int i = 0; i < 512; i++){
    8020113a:	04a1                	addi	s1,s1,8
    8020113c:	03248163          	beq	s1,s2,8020115e <freewalk+0x50>
    pte_t pte = pagetable[i];
    80201140:	6088                	ld	a0,0(s1)
    if((pte & PTE_V) && (pte & (PTE_R|PTE_W|PTE_X)) == 0){
    80201142:	00f57793          	andi	a5,a0,15
    80201146:	ff3782e3          	beq	a5,s3,8020112a <freewalk+0x1c>
    } else if(pte & PTE_V){
    8020114a:	8905                	andi	a0,a0,1
    8020114c:	d57d                	beqz	a0,8020113a <freewalk+0x2c>
      panic("freewalk: leaf");
    8020114e:	00009517          	auipc	a0,0x9
    80201152:	35250513          	addi	a0,a0,850 # 8020a4a0 <digits+0x120>
    80201156:	fffff097          	auipc	ra,0xfffff
    8020115a:	fec080e7          	jalr	-20(ra) # 80200142 <panic>
    }
  }
  kfree((void*)pagetable);
    8020115e:	8552                	mv	a0,s4
    80201160:	fffff097          	auipc	ra,0xfffff
    80201164:	2e4080e7          	jalr	740(ra) # 80200444 <kfree>
}
    80201168:	70a2                	ld	ra,40(sp)
    8020116a:	7402                	ld	s0,32(sp)
    8020116c:	64e2                	ld	s1,24(sp)
    8020116e:	6942                	ld	s2,16(sp)
    80201170:	69a2                	ld	s3,8(sp)
    80201172:	6a02                	ld	s4,0(sp)
    80201174:	6145                	addi	sp,sp,48
    80201176:	8082                	ret

0000000080201178 <uvmfree>:

// Free user memory pages,
// then free page-table pages.
void
uvmfree(pagetable_t pagetable, uint64 sz)
{
    80201178:	1101                	addi	sp,sp,-32
    8020117a:	ec06                	sd	ra,24(sp)
    8020117c:	e822                	sd	s0,16(sp)
    8020117e:	e426                	sd	s1,8(sp)
    80201180:	1000                	addi	s0,sp,32
    80201182:	84aa                	mv	s1,a0
  if(sz > 0)
    80201184:	e999                	bnez	a1,8020119a <uvmfree+0x22>
    vmunmap(pagetable, 0, PGROUNDUP(sz)/PGSIZE, 1);
  freewalk(pagetable);
    80201186:	8526                	mv	a0,s1
    80201188:	00000097          	auipc	ra,0x0
    8020118c:	f86080e7          	jalr	-122(ra) # 8020110e <freewalk>
}
    80201190:	60e2                	ld	ra,24(sp)
    80201192:	6442                	ld	s0,16(sp)
    80201194:	64a2                	ld	s1,8(sp)
    80201196:	6105                	addi	sp,sp,32
    80201198:	8082                	ret
    vmunmap(pagetable, 0, PGROUNDUP(sz)/PGSIZE, 1);
    8020119a:	6605                	lui	a2,0x1
    8020119c:	167d                	addi	a2,a2,-1
    8020119e:	962e                	add	a2,a2,a1
    802011a0:	4685                	li	a3,1
    802011a2:	8231                	srli	a2,a2,0xc
    802011a4:	4581                	li	a1,0
    802011a6:	00000097          	auipc	ra,0x0
    802011aa:	c8a080e7          	jalr	-886(ra) # 80200e30 <vmunmap>
    802011ae:	bfe1                	j	80201186 <uvmfree+0xe>

00000000802011b0 <uvmcopy>:
  pte_t *pte;
  uint64 pa, i = 0, ki = 0;
  uint flags;
  char *mem;

  while (i < sz){
    802011b0:	10068563          	beqz	a3,802012ba <uvmcopy+0x10a>
{
    802011b4:	715d                	addi	sp,sp,-80
    802011b6:	e486                	sd	ra,72(sp)
    802011b8:	e0a2                	sd	s0,64(sp)
    802011ba:	fc26                	sd	s1,56(sp)
    802011bc:	f84a                	sd	s2,48(sp)
    802011be:	f44e                	sd	s3,40(sp)
    802011c0:	f052                	sd	s4,32(sp)
    802011c2:	ec56                	sd	s5,24(sp)
    802011c4:	e85a                	sd	s6,16(sp)
    802011c6:	e45e                	sd	s7,8(sp)
    802011c8:	e062                	sd	s8,0(sp)
    802011ca:	0880                	addi	s0,sp,80
    802011cc:	8baa                	mv	s7,a0
    802011ce:	8a2e                	mv	s4,a1
    802011d0:	8b32                	mv	s6,a2
    802011d2:	8ab6                	mv	s5,a3
  uint64 pa, i = 0, ki = 0;
    802011d4:	4981                	li	s3,0
    802011d6:	a011                	j	802011da <uvmcopy+0x2a>
    memmove(mem, (char*)pa, PGSIZE);
    if(mappages(new, i, PGSIZE, (uint64)mem, flags) != 0) {
      kfree(mem);
      goto err;
    }
    i += PGSIZE;
    802011d8:	89e2                	mv	s3,s8
    if((pte = walk(old, i, 0)) == NULL)
    802011da:	4601                	li	a2,0
    802011dc:	85ce                	mv	a1,s3
    802011de:	855e                	mv	a0,s7
    802011e0:	00000097          	auipc	ra,0x0
    802011e4:	936080e7          	jalr	-1738(ra) # 80200b16 <walk>
    802011e8:	c135                	beqz	a0,8020124c <uvmcopy+0x9c>
    if((*pte & PTE_V) == 0)
    802011ea:	6118                	ld	a4,0(a0)
    802011ec:	00177793          	andi	a5,a4,1
    802011f0:	c7b5                	beqz	a5,8020125c <uvmcopy+0xac>
    pa = PTE2PA(*pte);
    802011f2:	00a75593          	srli	a1,a4,0xa
    802011f6:	00c59c13          	slli	s8,a1,0xc
    flags = PTE_FLAGS(*pte);
    802011fa:	3ff77493          	andi	s1,a4,1023
    if((mem = kalloc()) == NULL)
    802011fe:	fffff097          	auipc	ra,0xfffff
    80201202:	35e080e7          	jalr	862(ra) # 8020055c <kalloc>
    80201206:	892a                	mv	s2,a0
    80201208:	c92d                	beqz	a0,8020127a <uvmcopy+0xca>
    memmove(mem, (char*)pa, PGSIZE);
    8020120a:	6605                	lui	a2,0x1
    8020120c:	85e2                	mv	a1,s8
    8020120e:	fffff097          	auipc	ra,0xfffff
    80201212:	5b6080e7          	jalr	1462(ra) # 802007c4 <memmove>
    if(mappages(new, i, PGSIZE, (uint64)mem, flags) != 0) {
    80201216:	2481                	sext.w	s1,s1
    80201218:	8726                	mv	a4,s1
    8020121a:	86ca                	mv	a3,s2
    8020121c:	6605                	lui	a2,0x1
    8020121e:	85ce                	mv	a1,s3
    80201220:	8552                	mv	a0,s4
    80201222:	00000097          	auipc	ra,0x0
    80201226:	a54080e7          	jalr	-1452(ra) # 80200c76 <mappages>
    8020122a:	e129                	bnez	a0,8020126c <uvmcopy+0xbc>
    i += PGSIZE;
    8020122c:	6c05                	lui	s8,0x1
    8020122e:	9c4e                	add	s8,s8,s3
    if(mappages(knew, ki, PGSIZE, (uint64)mem, flags & ~PTE_U) != 0){
    80201230:	3ef4f713          	andi	a4,s1,1007
    80201234:	86ca                	mv	a3,s2
    80201236:	6605                	lui	a2,0x1
    80201238:	85ce                	mv	a1,s3
    8020123a:	855a                	mv	a0,s6
    8020123c:	00000097          	auipc	ra,0x0
    80201240:	a3a080e7          	jalr	-1478(ra) # 80200c76 <mappages>
    80201244:	ed05                	bnez	a0,8020127c <uvmcopy+0xcc>
  while (i < sz){
    80201246:	f95c69e3          	bltu	s8,s5,802011d8 <uvmcopy+0x28>
    8020124a:	a8a1                	j	802012a2 <uvmcopy+0xf2>
      panic("uvmcopy: pte should exist");
    8020124c:	00009517          	auipc	a0,0x9
    80201250:	26450513          	addi	a0,a0,612 # 8020a4b0 <digits+0x130>
    80201254:	fffff097          	auipc	ra,0xfffff
    80201258:	eee080e7          	jalr	-274(ra) # 80200142 <panic>
      panic("uvmcopy: page not present");
    8020125c:	00009517          	auipc	a0,0x9
    80201260:	27450513          	addi	a0,a0,628 # 8020a4d0 <digits+0x150>
    80201264:	fffff097          	auipc	ra,0xfffff
    80201268:	ede080e7          	jalr	-290(ra) # 80200142 <panic>
      kfree(mem);
    8020126c:	854a                	mv	a0,s2
    8020126e:	fffff097          	auipc	ra,0xfffff
    80201272:	1d6080e7          	jalr	470(ra) # 80200444 <kfree>
      goto err;
    80201276:	8c4e                	mv	s8,s3
    80201278:	a011                	j	8020127c <uvmcopy+0xcc>
    8020127a:	8c4e                	mv	s8,s3
    ki += PGSIZE;
  }
  return 0;

 err:
  vmunmap(knew, 0, ki / PGSIZE, 0);
    8020127c:	4681                	li	a3,0
    8020127e:	00c9d613          	srli	a2,s3,0xc
    80201282:	4581                	li	a1,0
    80201284:	855a                	mv	a0,s6
    80201286:	00000097          	auipc	ra,0x0
    8020128a:	baa080e7          	jalr	-1110(ra) # 80200e30 <vmunmap>
  vmunmap(new, 0, i / PGSIZE, 1);
    8020128e:	4685                	li	a3,1
    80201290:	00cc5613          	srli	a2,s8,0xc
    80201294:	4581                	li	a1,0
    80201296:	8552                	mv	a0,s4
    80201298:	00000097          	auipc	ra,0x0
    8020129c:	b98080e7          	jalr	-1128(ra) # 80200e30 <vmunmap>
  return -1;
    802012a0:	557d                	li	a0,-1
}
    802012a2:	60a6                	ld	ra,72(sp)
    802012a4:	6406                	ld	s0,64(sp)
    802012a6:	74e2                	ld	s1,56(sp)
    802012a8:	7942                	ld	s2,48(sp)
    802012aa:	79a2                	ld	s3,40(sp)
    802012ac:	7a02                	ld	s4,32(sp)
    802012ae:	6ae2                	ld	s5,24(sp)
    802012b0:	6b42                	ld	s6,16(sp)
    802012b2:	6ba2                	ld	s7,8(sp)
    802012b4:	6c02                	ld	s8,0(sp)
    802012b6:	6161                	addi	sp,sp,80
    802012b8:	8082                	ret
  return 0;
    802012ba:	4501                	li	a0,0
}
    802012bc:	8082                	ret

00000000802012be <uvmclear>:

// mark a PTE invalid for user access.
// used by exec for the user stack guard page.
void
uvmclear(pagetable_t pagetable, uint64 va)
{
    802012be:	1141                	addi	sp,sp,-16
    802012c0:	e406                	sd	ra,8(sp)
    802012c2:	e022                	sd	s0,0(sp)
    802012c4:	0800                	addi	s0,sp,16
  pte_t *pte;
  
  pte = walk(pagetable, va, 0);
    802012c6:	4601                	li	a2,0
    802012c8:	00000097          	auipc	ra,0x0
    802012cc:	84e080e7          	jalr	-1970(ra) # 80200b16 <walk>
  if(pte == NULL)
    802012d0:	c901                	beqz	a0,802012e0 <uvmclear+0x22>
    panic("uvmclear");
  *pte &= ~PTE_U;
    802012d2:	611c                	ld	a5,0(a0)
    802012d4:	9bbd                	andi	a5,a5,-17
    802012d6:	e11c                	sd	a5,0(a0)
}
    802012d8:	60a2                	ld	ra,8(sp)
    802012da:	6402                	ld	s0,0(sp)
    802012dc:	0141                	addi	sp,sp,16
    802012de:	8082                	ret
    panic("uvmclear");
    802012e0:	00009517          	auipc	a0,0x9
    802012e4:	21050513          	addi	a0,a0,528 # 8020a4f0 <digits+0x170>
    802012e8:	fffff097          	auipc	ra,0xfffff
    802012ec:	e5a080e7          	jalr	-422(ra) # 80200142 <panic>

00000000802012f0 <copyout>:
int
copyout(pagetable_t pagetable, uint64 dstva, char *src, uint64 len)
{
  uint64 n, va0, pa0;

  while(len > 0){
    802012f0:	c6bd                	beqz	a3,8020135e <copyout+0x6e>
{
    802012f2:	715d                	addi	sp,sp,-80
    802012f4:	e486                	sd	ra,72(sp)
    802012f6:	e0a2                	sd	s0,64(sp)
    802012f8:	fc26                	sd	s1,56(sp)
    802012fa:	f84a                	sd	s2,48(sp)
    802012fc:	f44e                	sd	s3,40(sp)
    802012fe:	f052                	sd	s4,32(sp)
    80201300:	ec56                	sd	s5,24(sp)
    80201302:	e85a                	sd	s6,16(sp)
    80201304:	e45e                	sd	s7,8(sp)
    80201306:	e062                	sd	s8,0(sp)
    80201308:	0880                	addi	s0,sp,80
    8020130a:	8b2a                	mv	s6,a0
    8020130c:	8c2e                	mv	s8,a1
    8020130e:	8a32                	mv	s4,a2
    80201310:	89b6                	mv	s3,a3
    va0 = PGROUNDDOWN(dstva);
    80201312:	7bfd                	lui	s7,0xfffff
    pa0 = walkaddr(pagetable, va0);
    if(pa0 == NULL)
      return -1;
    n = PGSIZE - (dstva - va0);
    80201314:	6a85                	lui	s5,0x1
    80201316:	a015                	j	8020133a <copyout+0x4a>
    if(n > len)
      n = len;
    memmove((void *)(pa0 + (dstva - va0)), src, n);
    80201318:	9562                	add	a0,a0,s8
    8020131a:	0004861b          	sext.w	a2,s1
    8020131e:	85d2                	mv	a1,s4
    80201320:	41250533          	sub	a0,a0,s2
    80201324:	fffff097          	auipc	ra,0xfffff
    80201328:	4a0080e7          	jalr	1184(ra) # 802007c4 <memmove>

    len -= n;
    8020132c:	409989b3          	sub	s3,s3,s1
    src += n;
    80201330:	9a26                	add	s4,s4,s1
    dstva = va0 + PGSIZE;
    80201332:	01590c33          	add	s8,s2,s5
  while(len > 0){
    80201336:	02098263          	beqz	s3,8020135a <copyout+0x6a>
    va0 = PGROUNDDOWN(dstva);
    8020133a:	017c7933          	and	s2,s8,s7
    pa0 = walkaddr(pagetable, va0);
    8020133e:	85ca                	mv	a1,s2
    80201340:	855a                	mv	a0,s6
    80201342:	00000097          	auipc	ra,0x0
    80201346:	87a080e7          	jalr	-1926(ra) # 80200bbc <walkaddr>
    if(pa0 == NULL)
    8020134a:	cd01                	beqz	a0,80201362 <copyout+0x72>
    n = PGSIZE - (dstva - va0);
    8020134c:	418904b3          	sub	s1,s2,s8
    80201350:	94d6                	add	s1,s1,s5
    if(n > len)
    80201352:	fc99f3e3          	bgeu	s3,s1,80201318 <copyout+0x28>
    80201356:	84ce                	mv	s1,s3
    80201358:	b7c1                	j	80201318 <copyout+0x28>
  }
  return 0;
    8020135a:	4501                	li	a0,0
    8020135c:	a021                	j	80201364 <copyout+0x74>
    8020135e:	4501                	li	a0,0
}
    80201360:	8082                	ret
      return -1;
    80201362:	557d                	li	a0,-1
}
    80201364:	60a6                	ld	ra,72(sp)
    80201366:	6406                	ld	s0,64(sp)
    80201368:	74e2                	ld	s1,56(sp)
    8020136a:	7942                	ld	s2,48(sp)
    8020136c:	79a2                	ld	s3,40(sp)
    8020136e:	7a02                	ld	s4,32(sp)
    80201370:	6ae2                	ld	s5,24(sp)
    80201372:	6b42                	ld	s6,16(sp)
    80201374:	6ba2                	ld	s7,8(sp)
    80201376:	6c02                	ld	s8,0(sp)
    80201378:	6161                	addi	sp,sp,80
    8020137a:	8082                	ret

000000008020137c <copyout2>:

int
copyout2(uint64 dstva, char *src, uint64 len)
{
    8020137c:	7179                	addi	sp,sp,-48
    8020137e:	f406                	sd	ra,40(sp)
    80201380:	f022                	sd	s0,32(sp)
    80201382:	ec26                	sd	s1,24(sp)
    80201384:	e84a                	sd	s2,16(sp)
    80201386:	e44e                	sd	s3,8(sp)
    80201388:	1800                	addi	s0,sp,48
    8020138a:	84aa                	mv	s1,a0
    8020138c:	89ae                	mv	s3,a1
    8020138e:	8932                	mv	s2,a2
  uint64 sz = myproc()->sz;
    80201390:	00000097          	auipc	ra,0x0
    80201394:	6d0080e7          	jalr	1744(ra) # 80201a60 <myproc>
    80201398:	653c                	ld	a5,72(a0)
  if (dstva + len > sz || dstva >= sz) {
    8020139a:	01248733          	add	a4,s1,s2
    8020139e:	02e7e463          	bltu	a5,a4,802013c6 <copyout2+0x4a>
    802013a2:	02f4f463          	bgeu	s1,a5,802013ca <copyout2+0x4e>
    return -1;
  }
  memmove((void *)dstva, src, len);
    802013a6:	0009061b          	sext.w	a2,s2
    802013aa:	85ce                	mv	a1,s3
    802013ac:	8526                	mv	a0,s1
    802013ae:	fffff097          	auipc	ra,0xfffff
    802013b2:	416080e7          	jalr	1046(ra) # 802007c4 <memmove>
  return 0;
    802013b6:	4501                	li	a0,0
}
    802013b8:	70a2                	ld	ra,40(sp)
    802013ba:	7402                	ld	s0,32(sp)
    802013bc:	64e2                	ld	s1,24(sp)
    802013be:	6942                	ld	s2,16(sp)
    802013c0:	69a2                	ld	s3,8(sp)
    802013c2:	6145                	addi	sp,sp,48
    802013c4:	8082                	ret
    return -1;
    802013c6:	557d                	li	a0,-1
    802013c8:	bfc5                	j	802013b8 <copyout2+0x3c>
    802013ca:	557d                	li	a0,-1
    802013cc:	b7f5                	j	802013b8 <copyout2+0x3c>

00000000802013ce <copyin>:
int
copyin(pagetable_t pagetable, char *dst, uint64 srcva, uint64 len)
{
  uint64 n, va0, pa0;

  while(len > 0){
    802013ce:	c6bd                	beqz	a3,8020143c <copyin+0x6e>
{
    802013d0:	715d                	addi	sp,sp,-80
    802013d2:	e486                	sd	ra,72(sp)
    802013d4:	e0a2                	sd	s0,64(sp)
    802013d6:	fc26                	sd	s1,56(sp)
    802013d8:	f84a                	sd	s2,48(sp)
    802013da:	f44e                	sd	s3,40(sp)
    802013dc:	f052                	sd	s4,32(sp)
    802013de:	ec56                	sd	s5,24(sp)
    802013e0:	e85a                	sd	s6,16(sp)
    802013e2:	e45e                	sd	s7,8(sp)
    802013e4:	e062                	sd	s8,0(sp)
    802013e6:	0880                	addi	s0,sp,80
    802013e8:	8b2a                	mv	s6,a0
    802013ea:	8a2e                	mv	s4,a1
    802013ec:	8c32                	mv	s8,a2
    802013ee:	89b6                	mv	s3,a3
    va0 = PGROUNDDOWN(srcva);
    802013f0:	7bfd                	lui	s7,0xfffff
    pa0 = walkaddr(pagetable, va0);
    if(pa0 == NULL)
      return -1;
    n = PGSIZE - (srcva - va0);
    802013f2:	6a85                	lui	s5,0x1
    802013f4:	a015                	j	80201418 <copyin+0x4a>
    if(n > len)
      n = len;
    memmove(dst, (void *)(pa0 + (srcva - va0)), n);
    802013f6:	9562                	add	a0,a0,s8
    802013f8:	0004861b          	sext.w	a2,s1
    802013fc:	412505b3          	sub	a1,a0,s2
    80201400:	8552                	mv	a0,s4
    80201402:	fffff097          	auipc	ra,0xfffff
    80201406:	3c2080e7          	jalr	962(ra) # 802007c4 <memmove>

    len -= n;
    8020140a:	409989b3          	sub	s3,s3,s1
    dst += n;
    8020140e:	9a26                	add	s4,s4,s1
    srcva = va0 + PGSIZE;
    80201410:	01590c33          	add	s8,s2,s5
  while(len > 0){
    80201414:	02098263          	beqz	s3,80201438 <copyin+0x6a>
    va0 = PGROUNDDOWN(srcva);
    80201418:	017c7933          	and	s2,s8,s7
    pa0 = walkaddr(pagetable, va0);
    8020141c:	85ca                	mv	a1,s2
    8020141e:	855a                	mv	a0,s6
    80201420:	fffff097          	auipc	ra,0xfffff
    80201424:	79c080e7          	jalr	1948(ra) # 80200bbc <walkaddr>
    if(pa0 == NULL)
    80201428:	cd01                	beqz	a0,80201440 <copyin+0x72>
    n = PGSIZE - (srcva - va0);
    8020142a:	418904b3          	sub	s1,s2,s8
    8020142e:	94d6                	add	s1,s1,s5
    if(n > len)
    80201430:	fc99f3e3          	bgeu	s3,s1,802013f6 <copyin+0x28>
    80201434:	84ce                	mv	s1,s3
    80201436:	b7c1                	j	802013f6 <copyin+0x28>
  }
  return 0;
    80201438:	4501                	li	a0,0
    8020143a:	a021                	j	80201442 <copyin+0x74>
    8020143c:	4501                	li	a0,0
}
    8020143e:	8082                	ret
      return -1;
    80201440:	557d                	li	a0,-1
}
    80201442:	60a6                	ld	ra,72(sp)
    80201444:	6406                	ld	s0,64(sp)
    80201446:	74e2                	ld	s1,56(sp)
    80201448:	7942                	ld	s2,48(sp)
    8020144a:	79a2                	ld	s3,40(sp)
    8020144c:	7a02                	ld	s4,32(sp)
    8020144e:	6ae2                	ld	s5,24(sp)
    80201450:	6b42                	ld	s6,16(sp)
    80201452:	6ba2                	ld	s7,8(sp)
    80201454:	6c02                	ld	s8,0(sp)
    80201456:	6161                	addi	sp,sp,80
    80201458:	8082                	ret

000000008020145a <copyin2>:

int
copyin2(char *dst, uint64 srcva, uint64 len)
{
    8020145a:	7179                	addi	sp,sp,-48
    8020145c:	f406                	sd	ra,40(sp)
    8020145e:	f022                	sd	s0,32(sp)
    80201460:	ec26                	sd	s1,24(sp)
    80201462:	e84a                	sd	s2,16(sp)
    80201464:	e44e                	sd	s3,8(sp)
    80201466:	1800                	addi	s0,sp,48
    80201468:	89aa                	mv	s3,a0
    8020146a:	84ae                	mv	s1,a1
    8020146c:	8932                	mv	s2,a2
  uint64 sz = myproc()->sz;
    8020146e:	00000097          	auipc	ra,0x0
    80201472:	5f2080e7          	jalr	1522(ra) # 80201a60 <myproc>
    80201476:	653c                	ld	a5,72(a0)
  if (srcva + len > sz || srcva >= sz) {
    80201478:	01248733          	add	a4,s1,s2
    8020147c:	02e7e463          	bltu	a5,a4,802014a4 <copyin2+0x4a>
    80201480:	02f4f463          	bgeu	s1,a5,802014a8 <copyin2+0x4e>
    return -1;
  }
  memmove(dst, (void *)srcva, len);
    80201484:	0009061b          	sext.w	a2,s2
    80201488:	85a6                	mv	a1,s1
    8020148a:	854e                	mv	a0,s3
    8020148c:	fffff097          	auipc	ra,0xfffff
    80201490:	338080e7          	jalr	824(ra) # 802007c4 <memmove>
  return 0;
    80201494:	4501                	li	a0,0
}
    80201496:	70a2                	ld	ra,40(sp)
    80201498:	7402                	ld	s0,32(sp)
    8020149a:	64e2                	ld	s1,24(sp)
    8020149c:	6942                	ld	s2,16(sp)
    8020149e:	69a2                	ld	s3,8(sp)
    802014a0:	6145                	addi	sp,sp,48
    802014a2:	8082                	ret
    return -1;
    802014a4:	557d                	li	a0,-1
    802014a6:	bfc5                	j	80201496 <copyin2+0x3c>
    802014a8:	557d                	li	a0,-1
    802014aa:	b7f5                	j	80201496 <copyin2+0x3c>

00000000802014ac <copyinstr>:
copyinstr(pagetable_t pagetable, char *dst, uint64 srcva, uint64 max)
{
  uint64 n, va0, pa0;
  int got_null = 0;

  while(got_null == 0 && max > 0){
    802014ac:	c6c5                	beqz	a3,80201554 <copyinstr+0xa8>
{
    802014ae:	715d                	addi	sp,sp,-80
    802014b0:	e486                	sd	ra,72(sp)
    802014b2:	e0a2                	sd	s0,64(sp)
    802014b4:	fc26                	sd	s1,56(sp)
    802014b6:	f84a                	sd	s2,48(sp)
    802014b8:	f44e                	sd	s3,40(sp)
    802014ba:	f052                	sd	s4,32(sp)
    802014bc:	ec56                	sd	s5,24(sp)
    802014be:	e85a                	sd	s6,16(sp)
    802014c0:	e45e                	sd	s7,8(sp)
    802014c2:	0880                	addi	s0,sp,80
    802014c4:	8a2a                	mv	s4,a0
    802014c6:	8b2e                	mv	s6,a1
    802014c8:	8bb2                	mv	s7,a2
    802014ca:	84b6                	mv	s1,a3
    va0 = PGROUNDDOWN(srcva);
    802014cc:	7afd                	lui	s5,0xfffff
    pa0 = walkaddr(pagetable, va0);
    if(pa0 == NULL)
      return -1;
    n = PGSIZE - (srcva - va0);
    802014ce:	6985                	lui	s3,0x1
    802014d0:	a035                	j	802014fc <copyinstr+0x50>
      n = max;

    char *p = (char *) (pa0 + (srcva - va0));
    while(n > 0){
      if(*p == '\0'){
        *dst = '\0';
    802014d2:	00078023          	sb	zero,0(a5) # 1000 <_entry-0x801ff000>
    802014d6:	4785                	li	a5,1
      dst++;
    }

    srcva = va0 + PGSIZE;
  }
  if(got_null){
    802014d8:	0017b793          	seqz	a5,a5
    802014dc:	40f00533          	neg	a0,a5
    return 0;
  } else {
    return -1;
  }
}
    802014e0:	60a6                	ld	ra,72(sp)
    802014e2:	6406                	ld	s0,64(sp)
    802014e4:	74e2                	ld	s1,56(sp)
    802014e6:	7942                	ld	s2,48(sp)
    802014e8:	79a2                	ld	s3,40(sp)
    802014ea:	7a02                	ld	s4,32(sp)
    802014ec:	6ae2                	ld	s5,24(sp)
    802014ee:	6b42                	ld	s6,16(sp)
    802014f0:	6ba2                	ld	s7,8(sp)
    802014f2:	6161                	addi	sp,sp,80
    802014f4:	8082                	ret
    srcva = va0 + PGSIZE;
    802014f6:	01390bb3          	add	s7,s2,s3
  while(got_null == 0 && max > 0){
    802014fa:	c8a9                	beqz	s1,8020154c <copyinstr+0xa0>
    va0 = PGROUNDDOWN(srcva);
    802014fc:	015bf933          	and	s2,s7,s5
    pa0 = walkaddr(pagetable, va0);
    80201500:	85ca                	mv	a1,s2
    80201502:	8552                	mv	a0,s4
    80201504:	fffff097          	auipc	ra,0xfffff
    80201508:	6b8080e7          	jalr	1720(ra) # 80200bbc <walkaddr>
    if(pa0 == NULL)
    8020150c:	c131                	beqz	a0,80201550 <copyinstr+0xa4>
    n = PGSIZE - (srcva - va0);
    8020150e:	41790833          	sub	a6,s2,s7
    80201512:	984e                	add	a6,a6,s3
    if(n > max)
    80201514:	0104f363          	bgeu	s1,a6,8020151a <copyinstr+0x6e>
    80201518:	8826                	mv	a6,s1
    char *p = (char *) (pa0 + (srcva - va0));
    8020151a:	955e                	add	a0,a0,s7
    8020151c:	41250533          	sub	a0,a0,s2
    while(n > 0){
    80201520:	fc080be3          	beqz	a6,802014f6 <copyinstr+0x4a>
    80201524:	985a                	add	a6,a6,s6
    80201526:	87da                	mv	a5,s6
      if(*p == '\0'){
    80201528:	41650633          	sub	a2,a0,s6
    8020152c:	14fd                	addi	s1,s1,-1
    8020152e:	9b26                	add	s6,s6,s1
    80201530:	00f60733          	add	a4,a2,a5
    80201534:	00074703          	lbu	a4,0(a4) # fffffffffffff000 <kernel_end+0xffffffff7fdc0000>
    80201538:	df49                	beqz	a4,802014d2 <copyinstr+0x26>
        *dst = *p;
    8020153a:	00e78023          	sb	a4,0(a5)
      --max;
    8020153e:	40fb04b3          	sub	s1,s6,a5
      dst++;
    80201542:	0785                	addi	a5,a5,1
    while(n > 0){
    80201544:	ff0796e3          	bne	a5,a6,80201530 <copyinstr+0x84>
      dst++;
    80201548:	8b42                	mv	s6,a6
    8020154a:	b775                	j	802014f6 <copyinstr+0x4a>
    8020154c:	4781                	li	a5,0
    8020154e:	b769                	j	802014d8 <copyinstr+0x2c>
      return -1;
    80201550:	557d                	li	a0,-1
    80201552:	b779                	j	802014e0 <copyinstr+0x34>
  int got_null = 0;
    80201554:	4781                	li	a5,0
  if(got_null){
    80201556:	0017b793          	seqz	a5,a5
    8020155a:	40f00533          	neg	a0,a5
}
    8020155e:	8082                	ret

0000000080201560 <copyinstr2>:

int
copyinstr2(char *dst, uint64 srcva, uint64 max)
{
    80201560:	7179                	addi	sp,sp,-48
    80201562:	f406                	sd	ra,40(sp)
    80201564:	f022                	sd	s0,32(sp)
    80201566:	ec26                	sd	s1,24(sp)
    80201568:	e84a                	sd	s2,16(sp)
    8020156a:	e44e                	sd	s3,8(sp)
    8020156c:	1800                	addi	s0,sp,48
    8020156e:	89aa                	mv	s3,a0
    80201570:	84ae                	mv	s1,a1
    80201572:	8932                	mv	s2,a2
  int got_null = 0;
  uint64 sz = myproc()->sz;
    80201574:	00000097          	auipc	ra,0x0
    80201578:	4ec080e7          	jalr	1260(ra) # 80201a60 <myproc>
    8020157c:	6534                	ld	a3,72(a0)
  while(srcva < sz && max > 0){
    8020157e:	04d4f363          	bgeu	s1,a3,802015c4 <copyinstr2+0x64>
    80201582:	04090363          	beqz	s2,802015c8 <copyinstr2+0x68>
    80201586:	01298633          	add	a2,s3,s2
    8020158a:	8e85                	sub	a3,a3,s1
    8020158c:	96ce                	add	a3,a3,s3
    8020158e:	87ce                	mv	a5,s3
    char *p = (char *)srcva;
    if(*p == '\0'){
    80201590:	413485b3          	sub	a1,s1,s3
    80201594:	00b78733          	add	a4,a5,a1
    80201598:	00074703          	lbu	a4,0(a4)
    8020159c:	cb11                	beqz	a4,802015b0 <copyinstr2+0x50>
      *dst = '\0';
      got_null = 1;
      break;
    } else {
      *dst = *p;
    8020159e:	00e78023          	sb	a4,0(a5)
    }
    --max;
    srcva++;
    dst++;
    802015a2:	0785                	addi	a5,a5,1
  while(srcva < sz && max > 0){
    802015a4:	02d78463          	beq	a5,a3,802015cc <copyinstr2+0x6c>
    802015a8:	fec796e3          	bne	a5,a2,80201594 <copyinstr2+0x34>
  }
  if(got_null){
    return 0;
  } else {
    return -1;
    802015ac:	557d                	li	a0,-1
    802015ae:	a021                	j	802015b6 <copyinstr2+0x56>
      *dst = '\0';
    802015b0:	00078023          	sb	zero,0(a5)
    return 0;
    802015b4:	4501                	li	a0,0
  }
}
    802015b6:	70a2                	ld	ra,40(sp)
    802015b8:	7402                	ld	s0,32(sp)
    802015ba:	64e2                	ld	s1,24(sp)
    802015bc:	6942                	ld	s2,16(sp)
    802015be:	69a2                	ld	s3,8(sp)
    802015c0:	6145                	addi	sp,sp,48
    802015c2:	8082                	ret
    return -1;
    802015c4:	557d                	li	a0,-1
    802015c6:	bfc5                	j	802015b6 <copyinstr2+0x56>
    802015c8:	557d                	li	a0,-1
    802015ca:	b7f5                	j	802015b6 <copyinstr2+0x56>
    802015cc:	557d                	li	a0,-1
    802015ce:	b7e5                	j	802015b6 <copyinstr2+0x56>

00000000802015d0 <kfreewalk>:
}

// only free page table, not physical pages
void
kfreewalk(pagetable_t kpt)
{
    802015d0:	7179                	addi	sp,sp,-48
    802015d2:	f406                	sd	ra,40(sp)
    802015d4:	f022                	sd	s0,32(sp)
    802015d6:	ec26                	sd	s1,24(sp)
    802015d8:	e84a                	sd	s2,16(sp)
    802015da:	e44e                	sd	s3,8(sp)
    802015dc:	e052                	sd	s4,0(sp)
    802015de:	1800                	addi	s0,sp,48
    802015e0:	8a2a                	mv	s4,a0
  for (int i = 0; i < 512; i++) {
    802015e2:	84aa                	mv	s1,a0
    802015e4:	6905                	lui	s2,0x1
    802015e6:	992a                	add	s2,s2,a0
    pte_t pte = kpt[i];
    if ((pte & PTE_V) && (pte & (PTE_R|PTE_W|PTE_X)) == 0) {
    802015e8:	4985                	li	s3,1
    802015ea:	a829                	j	80201604 <kfreewalk+0x34>
      kfreewalk((pagetable_t) PTE2PA(pte));
    802015ec:	83a9                	srli	a5,a5,0xa
    802015ee:	00c79513          	slli	a0,a5,0xc
    802015f2:	00000097          	auipc	ra,0x0
    802015f6:	fde080e7          	jalr	-34(ra) # 802015d0 <kfreewalk>
      kpt[i] = 0;
    802015fa:	0004b023          	sd	zero,0(s1)
  for (int i = 0; i < 512; i++) {
    802015fe:	04a1                	addi	s1,s1,8
    80201600:	01248963          	beq	s1,s2,80201612 <kfreewalk+0x42>
    pte_t pte = kpt[i];
    80201604:	609c                	ld	a5,0(s1)
    if ((pte & PTE_V) && (pte & (PTE_R|PTE_W|PTE_X)) == 0) {
    80201606:	00f7f713          	andi	a4,a5,15
    8020160a:	ff3701e3          	beq	a4,s3,802015ec <kfreewalk+0x1c>
    } else if (pte & PTE_V) {
    8020160e:	8b85                	andi	a5,a5,1
    80201610:	d7fd                	beqz	a5,802015fe <kfreewalk+0x2e>
      break;
    }
  }
  kfree((void *) kpt);
    80201612:	8552                	mv	a0,s4
    80201614:	fffff097          	auipc	ra,0xfffff
    80201618:	e30080e7          	jalr	-464(ra) # 80200444 <kfree>
}
    8020161c:	70a2                	ld	ra,40(sp)
    8020161e:	7402                	ld	s0,32(sp)
    80201620:	64e2                	ld	s1,24(sp)
    80201622:	6942                	ld	s2,16(sp)
    80201624:	69a2                	ld	s3,8(sp)
    80201626:	6a02                	ld	s4,0(sp)
    80201628:	6145                	addi	sp,sp,48
    8020162a:	8082                	ret

000000008020162c <kvmfreeusr>:

void
kvmfreeusr(pagetable_t kpt)
{
    8020162c:	1101                	addi	sp,sp,-32
    8020162e:	ec06                	sd	ra,24(sp)
    80201630:	e822                	sd	s0,16(sp)
    80201632:	e426                	sd	s1,8(sp)
    80201634:	1000                	addi	s0,sp,32
    80201636:	84aa                	mv	s1,a0
  pte_t pte;
  for (int i = 0; i < PX(2, MAXUVA); i++) {
    pte = kpt[i];
    80201638:	6108                	ld	a0,0(a0)
    if ((pte & PTE_V) && (pte & (PTE_R|PTE_W|PTE_X)) == 0) {
    8020163a:	00f57713          	andi	a4,a0,15
    8020163e:	4785                	li	a5,1
    80201640:	00f70d63          	beq	a4,a5,8020165a <kvmfreeusr+0x2e>
    pte = kpt[i];
    80201644:	6488                	ld	a0,8(s1)
    if ((pte & PTE_V) && (pte & (PTE_R|PTE_W|PTE_X)) == 0) {
    80201646:	00f57713          	andi	a4,a0,15
    8020164a:	4785                	li	a5,1
    8020164c:	02f70063          	beq	a4,a5,8020166c <kvmfreeusr+0x40>
      kfreewalk((pagetable_t) PTE2PA(pte));
      kpt[i] = 0;
    }
  }
}
    80201650:	60e2                	ld	ra,24(sp)
    80201652:	6442                	ld	s0,16(sp)
    80201654:	64a2                	ld	s1,8(sp)
    80201656:	6105                	addi	sp,sp,32
    80201658:	8082                	ret
      kfreewalk((pagetable_t) PTE2PA(pte));
    8020165a:	8129                	srli	a0,a0,0xa
    8020165c:	0532                	slli	a0,a0,0xc
    8020165e:	00000097          	auipc	ra,0x0
    80201662:	f72080e7          	jalr	-142(ra) # 802015d0 <kfreewalk>
      kpt[i] = 0;
    80201666:	0004b023          	sd	zero,0(s1)
    8020166a:	bfe9                	j	80201644 <kvmfreeusr+0x18>
      kfreewalk((pagetable_t) PTE2PA(pte));
    8020166c:	8129                	srli	a0,a0,0xa
    8020166e:	0532                	slli	a0,a0,0xc
    80201670:	00000097          	auipc	ra,0x0
    80201674:	f60080e7          	jalr	-160(ra) # 802015d0 <kfreewalk>
      kpt[i] = 0;
    80201678:	0004b423          	sd	zero,8(s1)
}
    8020167c:	bfd1                	j	80201650 <kvmfreeusr+0x24>

000000008020167e <kvmfree>:

void
kvmfree(pagetable_t kpt, int stack_free)
{
    8020167e:	1101                	addi	sp,sp,-32
    80201680:	ec06                	sd	ra,24(sp)
    80201682:	e822                	sd	s0,16(sp)
    80201684:	e426                	sd	s1,8(sp)
    80201686:	1000                	addi	s0,sp,32
    80201688:	84aa                	mv	s1,a0
  if (stack_free) {
    8020168a:	e185                	bnez	a1,802016aa <kvmfree+0x2c>
    pte_t pte = kpt[PX(2, VKSTACK)];
    if ((pte & PTE_V) && (pte & (PTE_R|PTE_W|PTE_X)) == 0) {
      kfreewalk((pagetable_t) PTE2PA(pte));
    }
  }
  kvmfreeusr(kpt);
    8020168c:	8526                	mv	a0,s1
    8020168e:	00000097          	auipc	ra,0x0
    80201692:	f9e080e7          	jalr	-98(ra) # 8020162c <kvmfreeusr>
  kfree(kpt);
    80201696:	8526                	mv	a0,s1
    80201698:	fffff097          	auipc	ra,0xfffff
    8020169c:	dac080e7          	jalr	-596(ra) # 80200444 <kfree>
}
    802016a0:	60e2                	ld	ra,24(sp)
    802016a2:	6442                	ld	s0,16(sp)
    802016a4:	64a2                	ld	s1,8(sp)
    802016a6:	6105                	addi	sp,sp,32
    802016a8:	8082                	ret
    vmunmap(kpt, VKSTACK, 1, 1);
    802016aa:	4685                	li	a3,1
    802016ac:	4605                	li	a2,1
    802016ae:	0fb00593          	li	a1,251
    802016b2:	05fa                	slli	a1,a1,0x1e
    802016b4:	fffff097          	auipc	ra,0xfffff
    802016b8:	77c080e7          	jalr	1916(ra) # 80200e30 <vmunmap>
    pte_t pte = kpt[PX(2, VKSTACK)];
    802016bc:	7d84b503          	ld	a0,2008(s1)
    if ((pte & PTE_V) && (pte & (PTE_R|PTE_W|PTE_X)) == 0) {
    802016c0:	00f57713          	andi	a4,a0,15
    802016c4:	4785                	li	a5,1
    802016c6:	fcf713e3          	bne	a4,a5,8020168c <kvmfree+0xe>
      kfreewalk((pagetable_t) PTE2PA(pte));
    802016ca:	8129                	srli	a0,a0,0xa
    802016cc:	0532                	slli	a0,a0,0xc
    802016ce:	00000097          	auipc	ra,0x0
    802016d2:	f02080e7          	jalr	-254(ra) # 802015d0 <kfreewalk>
    802016d6:	bf5d                	j	8020168c <kvmfree+0xe>

00000000802016d8 <proc_kpagetable>:
{
    802016d8:	1101                	addi	sp,sp,-32
    802016da:	ec06                	sd	ra,24(sp)
    802016dc:	e822                	sd	s0,16(sp)
    802016de:	e426                	sd	s1,8(sp)
    802016e0:	1000                	addi	s0,sp,32
  pagetable_t kpt = (pagetable_t) kalloc();
    802016e2:	fffff097          	auipc	ra,0xfffff
    802016e6:	e7a080e7          	jalr	-390(ra) # 8020055c <kalloc>
    802016ea:	84aa                	mv	s1,a0
  if (kpt == NULL)
    802016ec:	c91d                	beqz	a0,80201722 <proc_kpagetable+0x4a>
  memmove(kpt, kernel_pagetable, PGSIZE);
    802016ee:	6605                	lui	a2,0x1
    802016f0:	00016597          	auipc	a1,0x16
    802016f4:	9685b583          	ld	a1,-1688(a1) # 80217058 <kernel_pagetable>
    802016f8:	fffff097          	auipc	ra,0xfffff
    802016fc:	0cc080e7          	jalr	204(ra) # 802007c4 <memmove>
  char *pstack = kalloc();
    80201700:	fffff097          	auipc	ra,0xfffff
    80201704:	e5c080e7          	jalr	-420(ra) # 8020055c <kalloc>
    80201708:	86aa                	mv	a3,a0
  if(pstack == NULL)
    8020170a:	c115                	beqz	a0,8020172e <proc_kpagetable+0x56>
  if (mappages(kpt, VKSTACK, PGSIZE, (uint64)pstack, PTE_R | PTE_W) != 0)
    8020170c:	4719                	li	a4,6
    8020170e:	6605                	lui	a2,0x1
    80201710:	0fb00593          	li	a1,251
    80201714:	05fa                	slli	a1,a1,0x1e
    80201716:	8526                	mv	a0,s1
    80201718:	fffff097          	auipc	ra,0xfffff
    8020171c:	55e080e7          	jalr	1374(ra) # 80200c76 <mappages>
    80201720:	e519                	bnez	a0,8020172e <proc_kpagetable+0x56>
}
    80201722:	8526                	mv	a0,s1
    80201724:	60e2                	ld	ra,24(sp)
    80201726:	6442                	ld	s0,16(sp)
    80201728:	64a2                	ld	s1,8(sp)
    8020172a:	6105                	addi	sp,sp,32
    8020172c:	8082                	ret
  kvmfree(kpt, 1);
    8020172e:	4585                	li	a1,1
    80201730:	8526                	mv	a0,s1
    80201732:	00000097          	auipc	ra,0x0
    80201736:	f4c080e7          	jalr	-180(ra) # 8020167e <kvmfree>
  return NULL;
    8020173a:	4481                	li	s1,0
    8020173c:	b7dd                	j	80201722 <proc_kpagetable+0x4a>

000000008020173e <vmprint>:

void vmprint(pagetable_t pagetable)
{
    8020173e:	7119                	addi	sp,sp,-128
    80201740:	fc86                	sd	ra,120(sp)
    80201742:	f8a2                	sd	s0,112(sp)
    80201744:	f4a6                	sd	s1,104(sp)
    80201746:	f0ca                	sd	s2,96(sp)
    80201748:	ecce                	sd	s3,88(sp)
    8020174a:	e8d2                	sd	s4,80(sp)
    8020174c:	e4d6                	sd	s5,72(sp)
    8020174e:	e0da                	sd	s6,64(sp)
    80201750:	fc5e                	sd	s7,56(sp)
    80201752:	f862                	sd	s8,48(sp)
    80201754:	f466                	sd	s9,40(sp)
    80201756:	f06a                	sd	s10,32(sp)
    80201758:	ec6e                	sd	s11,24(sp)
    8020175a:	0100                	addi	s0,sp,128
    8020175c:	8baa                	mv	s7,a0
    8020175e:	f8a43023          	sd	a0,-128(s0)
  const int capacity = 512;
  printf("page table %p\n", pagetable);
    80201762:	85aa                	mv	a1,a0
    80201764:	00009517          	auipc	a0,0x9
    80201768:	d9c50513          	addi	a0,a0,-612 # 8020a500 <digits+0x180>
    8020176c:	fffff097          	auipc	ra,0xfffff
    80201770:	a20080e7          	jalr	-1504(ra) # 8020018c <printf>
  for (pte_t *pte = (pte_t *) pagetable; pte < pagetable + capacity; pte++) {
    80201774:	6d85                	lui	s11,0x1
    80201776:	9dde                	add	s11,s11,s7
    80201778:	6c05                	lui	s8,0x1

      for (pte_t *pte2 = (pte_t *) pt2; pte2 < pt2 + capacity; pte2++) {
        if (*pte2 & PTE_V)
        {
          pagetable_t pt3 = (pagetable_t) PTE2PA(*pte2);
          printf(".. ..%d: pte %p pa %p\n", pte2 - pt2, *pte2, pt3);
    8020177a:	00009c97          	auipc	s9,0x9
    8020177e:	daec8c93          	addi	s9,s9,-594 # 8020a528 <digits+0x1a8>
    80201782:	20000793          	li	a5,512
    80201786:	f8f43423          	sd	a5,-120(s0)

          for (pte_t *pte3 = (pte_t *) pt3; pte3 < pt3 + capacity; pte3++)
            if (*pte3 & PTE_V)
              printf(".. .. ..%d: pte %p pa %p\n", pte3 - pt3, *pte3, PTE2PA(*pte3));
    8020178a:	00009a17          	auipc	s4,0x9
    8020178e:	db6a0a13          	addi	s4,s4,-586 # 8020a540 <digits+0x1c0>
    80201792:	a88d                	j	80201804 <vmprint+0xc6>
    80201794:	00a65693          	srli	a3,a2,0xa
    80201798:	413485b3          	sub	a1,s1,s3
    8020179c:	06b2                	slli	a3,a3,0xc
    8020179e:	858d                	srai	a1,a1,0x3
    802017a0:	8552                	mv	a0,s4
    802017a2:	fffff097          	auipc	ra,0xfffff
    802017a6:	9ea080e7          	jalr	-1558(ra) # 8020018c <printf>
          for (pte_t *pte3 = (pte_t *) pt3; pte3 < pt3 + capacity; pte3++)
    802017aa:	04a1                	addi	s1,s1,8
    802017ac:	01248763          	beq	s1,s2,802017ba <vmprint+0x7c>
            if (*pte3 & PTE_V)
    802017b0:	6090                	ld	a2,0(s1)
    802017b2:	00167793          	andi	a5,a2,1
    802017b6:	dbf5                	beqz	a5,802017aa <vmprint+0x6c>
    802017b8:	bff1                	j	80201794 <vmprint+0x56>
      for (pte_t *pte2 = (pte_t *) pt2; pte2 < pt2 + capacity; pte2++) {
    802017ba:	0aa1                	addi	s5,s5,8
    802017bc:	056a8163          	beq	s5,s6,802017fe <vmprint+0xc0>
        if (*pte2 & PTE_V)
    802017c0:	000ab603          	ld	a2,0(s5) # fffffffffffff000 <kernel_end+0xffffffff7fdc0000>
    802017c4:	00167793          	andi	a5,a2,1
    802017c8:	dbed                	beqz	a5,802017ba <vmprint+0x7c>
          pagetable_t pt3 = (pagetable_t) PTE2PA(*pte2);
    802017ca:	00a65493          	srli	s1,a2,0xa
    802017ce:	04b2                	slli	s1,s1,0xc
    802017d0:	89a6                	mv	s3,s1
          printf(".. ..%d: pte %p pa %p\n", pte2 - pt2, *pte2, pt3);
    802017d2:	41aa85b3          	sub	a1,s5,s10
    802017d6:	86a6                	mv	a3,s1
    802017d8:	858d                	srai	a1,a1,0x3
    802017da:	8566                	mv	a0,s9
    802017dc:	fffff097          	auipc	ra,0xfffff
    802017e0:	9b0080e7          	jalr	-1616(ra) # 8020018c <printf>
          for (pte_t *pte3 = (pte_t *) pt3; pte3 < pt3 + capacity; pte3++)
    802017e4:	00848693          	addi	a3,s1,8
    802017e8:	01848733          	add	a4,s1,s8
    802017ec:	f8843783          	ld	a5,-120(s0)
    802017f0:	00d77363          	bgeu	a4,a3,802017f6 <vmprint+0xb8>
    802017f4:	4785                	li	a5,1
    802017f6:	078e                	slli	a5,a5,0x3
    802017f8:	00978933          	add	s2,a5,s1
    802017fc:	bf55                	j	802017b0 <vmprint+0x72>
  for (pte_t *pte = (pte_t *) pagetable; pte < pagetable + capacity; pte++) {
    802017fe:	0ba1                	addi	s7,s7,8
    80201800:	05bb8763          	beq	s7,s11,8020184e <vmprint+0x110>
    if (*pte & PTE_V)
    80201804:	000bb603          	ld	a2,0(s7) # fffffffffffff000 <kernel_end+0xffffffff7fdc0000>
    80201808:	00167793          	andi	a5,a2,1
    8020180c:	dbed                	beqz	a5,802017fe <vmprint+0xc0>
      pagetable_t pt2 = (pagetable_t) PTE2PA(*pte); 
    8020180e:	00a65a93          	srli	s5,a2,0xa
    80201812:	0ab2                	slli	s5,s5,0xc
    80201814:	8d56                	mv	s10,s5
      printf("..%d: pte %p pa %p\n", pte - pagetable, *pte, pt2);
    80201816:	f8043783          	ld	a5,-128(s0)
    8020181a:	40fb87b3          	sub	a5,s7,a5
    8020181e:	86d6                	mv	a3,s5
    80201820:	4037d593          	srai	a1,a5,0x3
    80201824:	00009517          	auipc	a0,0x9
    80201828:	cec50513          	addi	a0,a0,-788 # 8020a510 <digits+0x190>
    8020182c:	fffff097          	auipc	ra,0xfffff
    80201830:	960080e7          	jalr	-1696(ra) # 8020018c <printf>
      for (pte_t *pte2 = (pte_t *) pt2; pte2 < pt2 + capacity; pte2++) {
    80201834:	018a86b3          	add	a3,s5,s8
    80201838:	008a8713          	addi	a4,s5,8
    8020183c:	20000793          	li	a5,512
    80201840:	00e6f363          	bgeu	a3,a4,80201846 <vmprint+0x108>
    80201844:	4785                	li	a5,1
    80201846:	078e                	slli	a5,a5,0x3
    80201848:	01578b33          	add	s6,a5,s5
    8020184c:	bf95                	j	802017c0 <vmprint+0x82>
        }
      }
    }
  }
  return;
}
    8020184e:	70e6                	ld	ra,120(sp)
    80201850:	7446                	ld	s0,112(sp)
    80201852:	74a6                	ld	s1,104(sp)
    80201854:	7906                	ld	s2,96(sp)
    80201856:	69e6                	ld	s3,88(sp)
    80201858:	6a46                	ld	s4,80(sp)
    8020185a:	6aa6                	ld	s5,72(sp)
    8020185c:	6b06                	ld	s6,64(sp)
    8020185e:	7be2                	ld	s7,56(sp)
    80201860:	7c42                	ld	s8,48(sp)
    80201862:	7ca2                	ld	s9,40(sp)
    80201864:	7d02                	ld	s10,32(sp)
    80201866:	6de2                	ld	s11,24(sp)
    80201868:	6109                	addi	sp,sp,128
    8020186a:	8082                	ret

000000008020186c <wakeup1>:

// Wake up p if it is sleeping in wait(); used by exit().
// Caller must hold p->lock.
static void
wakeup1(struct proc *p)
{
    8020186c:	1101                	addi	sp,sp,-32
    8020186e:	ec06                	sd	ra,24(sp)
    80201870:	e822                	sd	s0,16(sp)
    80201872:	e426                	sd	s1,8(sp)
    80201874:	1000                	addi	s0,sp,32
    80201876:	84aa                	mv	s1,a0
  if (!holding(&p->lock))
    80201878:	fffff097          	auipc	ra,0xfffff
    8020187c:	e22080e7          	jalr	-478(ra) # 8020069a <holding>
    80201880:	c909                	beqz	a0,80201892 <wakeup1+0x26>
    panic("wakeup1");
  if (p->chan == p && p->state == SLEEPING)
    80201882:	749c                	ld	a5,40(s1)
    80201884:	00978f63          	beq	a5,s1,802018a2 <wakeup1+0x36>
  {
    p->state = RUNNABLE;
  }
}
    80201888:	60e2                	ld	ra,24(sp)
    8020188a:	6442                	ld	s0,16(sp)
    8020188c:	64a2                	ld	s1,8(sp)
    8020188e:	6105                	addi	sp,sp,32
    80201890:	8082                	ret
    panic("wakeup1");
    80201892:	00009517          	auipc	a0,0x9
    80201896:	cce50513          	addi	a0,a0,-818 # 8020a560 <digits+0x1e0>
    8020189a:	fffff097          	auipc	ra,0xfffff
    8020189e:	8a8080e7          	jalr	-1880(ra) # 80200142 <panic>
  if (p->chan == p && p->state == SLEEPING)
    802018a2:	4c98                	lw	a4,24(s1)
    802018a4:	4785                	li	a5,1
    802018a6:	fef711e3          	bne	a4,a5,80201888 <wakeup1+0x1c>
    p->state = RUNNABLE;
    802018aa:	4789                	li	a5,2
    802018ac:	cc9c                	sw	a5,24(s1)
}
    802018ae:	bfe9                	j	80201888 <wakeup1+0x1c>

00000000802018b0 <reg_info>:
{
    802018b0:	1141                	addi	sp,sp,-16
    802018b2:	e406                	sd	ra,8(sp)
    802018b4:	e022                	sd	s0,0(sp)
    802018b6:	0800                	addi	s0,sp,16
  printf("register info: {\n");
    802018b8:	00009517          	auipc	a0,0x9
    802018bc:	cb050513          	addi	a0,a0,-848 # 8020a568 <digits+0x1e8>
    802018c0:	fffff097          	auipc	ra,0xfffff
    802018c4:	8cc080e7          	jalr	-1844(ra) # 8020018c <printf>
  asm volatile("csrr %0, sstatus" : "=r" (x) );
    802018c8:	100025f3          	csrr	a1,sstatus
  printf("sstatus: %p\n", r_sstatus());
    802018cc:	00009517          	auipc	a0,0x9
    802018d0:	cb450513          	addi	a0,a0,-844 # 8020a580 <digits+0x200>
    802018d4:	fffff097          	auipc	ra,0xfffff
    802018d8:	8b8080e7          	jalr	-1864(ra) # 8020018c <printf>
  asm volatile("csrr %0, sip" : "=r" (x) );
    802018dc:	144025f3          	csrr	a1,sip
  printf("sip: %p\n", r_sip());
    802018e0:	00009517          	auipc	a0,0x9
    802018e4:	cb050513          	addi	a0,a0,-848 # 8020a590 <digits+0x210>
    802018e8:	fffff097          	auipc	ra,0xfffff
    802018ec:	8a4080e7          	jalr	-1884(ra) # 8020018c <printf>
  asm volatile("csrr %0, sie" : "=r" (x) );
    802018f0:	104025f3          	csrr	a1,sie
  printf("sie: %p\n", r_sie());
    802018f4:	00009517          	auipc	a0,0x9
    802018f8:	cac50513          	addi	a0,a0,-852 # 8020a5a0 <digits+0x220>
    802018fc:	fffff097          	auipc	ra,0xfffff
    80201900:	890080e7          	jalr	-1904(ra) # 8020018c <printf>
  asm volatile("csrr %0, sepc" : "=r" (x) );
    80201904:	141025f3          	csrr	a1,sepc
  printf("sepc: %p\n", r_sepc());
    80201908:	00009517          	auipc	a0,0x9
    8020190c:	ca850513          	addi	a0,a0,-856 # 8020a5b0 <digits+0x230>
    80201910:	fffff097          	auipc	ra,0xfffff
    80201914:	87c080e7          	jalr	-1924(ra) # 8020018c <printf>
  asm volatile("csrr %0, stvec" : "=r" (x) );
    80201918:	105025f3          	csrr	a1,stvec
  printf("stvec: %p\n", r_stvec());
    8020191c:	00009517          	auipc	a0,0x9
    80201920:	ca450513          	addi	a0,a0,-860 # 8020a5c0 <digits+0x240>
    80201924:	fffff097          	auipc	ra,0xfffff
    80201928:	868080e7          	jalr	-1944(ra) # 8020018c <printf>
  asm volatile("csrr %0, satp" : "=r" (x) );
    8020192c:	180025f3          	csrr	a1,satp
  printf("satp: %p\n", r_satp());
    80201930:	00009517          	auipc	a0,0x9
    80201934:	ca050513          	addi	a0,a0,-864 # 8020a5d0 <digits+0x250>
    80201938:	fffff097          	auipc	ra,0xfffff
    8020193c:	854080e7          	jalr	-1964(ra) # 8020018c <printf>
  asm volatile("csrr %0, scause" : "=r" (x) );
    80201940:	142025f3          	csrr	a1,scause
  printf("scause: %p\n", r_scause());
    80201944:	00009517          	auipc	a0,0x9
    80201948:	c9c50513          	addi	a0,a0,-868 # 8020a5e0 <digits+0x260>
    8020194c:	fffff097          	auipc	ra,0xfffff
    80201950:	840080e7          	jalr	-1984(ra) # 8020018c <printf>
  asm volatile("csrr %0, stval" : "=r" (x) );
    80201954:	143025f3          	csrr	a1,stval
  printf("stval: %p\n", r_stval());
    80201958:	00009517          	auipc	a0,0x9
    8020195c:	c9850513          	addi	a0,a0,-872 # 8020a5f0 <digits+0x270>
    80201960:	fffff097          	auipc	ra,0xfffff
    80201964:	82c080e7          	jalr	-2004(ra) # 8020018c <printf>
  asm volatile("mv %0, sp" : "=r" (x) );
    80201968:	858a                	mv	a1,sp
  printf("sp: %p\n", r_sp());
    8020196a:	00009517          	auipc	a0,0x9
    8020196e:	c9650513          	addi	a0,a0,-874 # 8020a600 <digits+0x280>
    80201972:	fffff097          	auipc	ra,0xfffff
    80201976:	81a080e7          	jalr	-2022(ra) # 8020018c <printf>
  asm volatile("mv %0, tp" : "=r" (x) );
    8020197a:	8592                	mv	a1,tp
  printf("tp: %p\n", r_tp());
    8020197c:	00009517          	auipc	a0,0x9
    80201980:	c8c50513          	addi	a0,a0,-884 # 8020a608 <digits+0x288>
    80201984:	fffff097          	auipc	ra,0xfffff
    80201988:	808080e7          	jalr	-2040(ra) # 8020018c <printf>
  asm volatile("mv %0, ra" : "=r" (x) );
    8020198c:	8586                	mv	a1,ra
  printf("ra: %p\n", r_ra());
    8020198e:	00009517          	auipc	a0,0x9
    80201992:	c8250513          	addi	a0,a0,-894 # 8020a610 <digits+0x290>
    80201996:	ffffe097          	auipc	ra,0xffffe
    8020199a:	7f6080e7          	jalr	2038(ra) # 8020018c <printf>
  printf("}\n");
    8020199e:	00009517          	auipc	a0,0x9
    802019a2:	c7a50513          	addi	a0,a0,-902 # 8020a618 <digits+0x298>
    802019a6:	ffffe097          	auipc	ra,0xffffe
    802019aa:	7e6080e7          	jalr	2022(ra) # 8020018c <printf>
}
    802019ae:	60a2                	ld	ra,8(sp)
    802019b0:	6402                	ld	s0,0(sp)
    802019b2:	0141                	addi	sp,sp,16
    802019b4:	8082                	ret

00000000802019b6 <procinit>:
{
    802019b6:	7179                	addi	sp,sp,-48
    802019b8:	f406                	sd	ra,40(sp)
    802019ba:	f022                	sd	s0,32(sp)
    802019bc:	ec26                	sd	s1,24(sp)
    802019be:	e84a                	sd	s2,16(sp)
    802019c0:	e44e                	sd	s3,8(sp)
    802019c2:	e052                	sd	s4,0(sp)
    802019c4:	1800                	addi	s0,sp,48
  initlock(&pid_lock, "nextpid");
    802019c6:	00009597          	auipc	a1,0x9
    802019ca:	c5a58593          	addi	a1,a1,-934 # 8020a620 <digits+0x2a0>
    802019ce:	00015517          	auipc	a0,0x15
    802019d2:	69250513          	addi	a0,a0,1682 # 80217060 <pid_lock>
    802019d6:	fffff097          	auipc	ra,0xfffff
    802019da:	cae080e7          	jalr	-850(ra) # 80200684 <initlock>
  for (p = proc; p < &proc[NPROC]; p++)
    802019de:	00015497          	auipc	s1,0x15
    802019e2:	7a248493          	addi	s1,s1,1954 # 80217180 <proc>
    initlock(&p->lock, "proc");
    802019e6:	00009a17          	auipc	s4,0x9
    802019ea:	c42a0a13          	addi	s4,s4,-958 # 8020a628 <digits+0x2a8>
  for (p = proc; p < &proc[NPROC]; p++)
    802019ee:	6905                	lui	s2,0x1
    802019f0:	80090913          	addi	s2,s2,-2048 # 800 <_entry-0x801ff800>
    802019f4:	0002e997          	auipc	s3,0x2e
    802019f8:	78c98993          	addi	s3,s3,1932 # 80230180 <bcache>
    initlock(&p->lock, "proc");
    802019fc:	85d2                	mv	a1,s4
    802019fe:	8526                	mv	a0,s1
    80201a00:	fffff097          	auipc	ra,0xfffff
    80201a04:	c84080e7          	jalr	-892(ra) # 80200684 <initlock>
  for (p = proc; p < &proc[NPROC]; p++)
    80201a08:	94ca                	add	s1,s1,s2
    80201a0a:	ff3499e3          	bne	s1,s3,802019fc <procinit+0x46>
  memset(cpus, 0, sizeof(cpus));
    80201a0e:	10000613          	li	a2,256
    80201a12:	4581                	li	a1,0
    80201a14:	00015517          	auipc	a0,0x15
    80201a18:	66450513          	addi	a0,a0,1636 # 80217078 <cpus>
    80201a1c:	fffff097          	auipc	ra,0xfffff
    80201a20:	d48080e7          	jalr	-696(ra) # 80200764 <memset>
}
    80201a24:	70a2                	ld	ra,40(sp)
    80201a26:	7402                	ld	s0,32(sp)
    80201a28:	64e2                	ld	s1,24(sp)
    80201a2a:	6942                	ld	s2,16(sp)
    80201a2c:	69a2                	ld	s3,8(sp)
    80201a2e:	6a02                	ld	s4,0(sp)
    80201a30:	6145                	addi	sp,sp,48
    80201a32:	8082                	ret

0000000080201a34 <cpuid>:
{
    80201a34:	1141                	addi	sp,sp,-16
    80201a36:	e422                	sd	s0,8(sp)
    80201a38:	0800                	addi	s0,sp,16
  asm volatile("mv %0, tp" : "=r" (x) );
    80201a3a:	8512                	mv	a0,tp
}
    80201a3c:	2501                	sext.w	a0,a0
    80201a3e:	6422                	ld	s0,8(sp)
    80201a40:	0141                	addi	sp,sp,16
    80201a42:	8082                	ret

0000000080201a44 <mycpu>:
{
    80201a44:	1141                	addi	sp,sp,-16
    80201a46:	e422                	sd	s0,8(sp)
    80201a48:	0800                	addi	s0,sp,16
    80201a4a:	8792                	mv	a5,tp
  struct cpu *c = &cpus[id];
    80201a4c:	2781                	sext.w	a5,a5
    80201a4e:	079e                	slli	a5,a5,0x7
}
    80201a50:	00015517          	auipc	a0,0x15
    80201a54:	62850513          	addi	a0,a0,1576 # 80217078 <cpus>
    80201a58:	953e                	add	a0,a0,a5
    80201a5a:	6422                	ld	s0,8(sp)
    80201a5c:	0141                	addi	sp,sp,16
    80201a5e:	8082                	ret

0000000080201a60 <myproc>:
{
    80201a60:	1101                	addi	sp,sp,-32
    80201a62:	ec06                	sd	ra,24(sp)
    80201a64:	e822                	sd	s0,16(sp)
    80201a66:	e426                	sd	s1,8(sp)
    80201a68:	1000                	addi	s0,sp,32
  push_off();
    80201a6a:	fffff097          	auipc	ra,0xfffff
    80201a6e:	b6e080e7          	jalr	-1170(ra) # 802005d8 <push_off>
    80201a72:	8792                	mv	a5,tp
  struct proc *p = c->proc;
    80201a74:	2781                	sext.w	a5,a5
    80201a76:	079e                	slli	a5,a5,0x7
    80201a78:	00015717          	auipc	a4,0x15
    80201a7c:	5e870713          	addi	a4,a4,1512 # 80217060 <pid_lock>
    80201a80:	97ba                	add	a5,a5,a4
    80201a82:	6f84                	ld	s1,24(a5)
  pop_off();
    80201a84:	fffff097          	auipc	ra,0xfffff
    80201a88:	ba0080e7          	jalr	-1120(ra) # 80200624 <pop_off>
}
    80201a8c:	8526                	mv	a0,s1
    80201a8e:	60e2                	ld	ra,24(sp)
    80201a90:	6442                	ld	s0,16(sp)
    80201a92:	64a2                	ld	s1,8(sp)
    80201a94:	6105                	addi	sp,sp,32
    80201a96:	8082                	ret

0000000080201a98 <forkret>:
{
    80201a98:	1101                	addi	sp,sp,-32
    80201a9a:	ec06                	sd	ra,24(sp)
    80201a9c:	e822                	sd	s0,16(sp)
    80201a9e:	e426                	sd	s1,8(sp)
    80201aa0:	1000                	addi	s0,sp,32
  release(&myproc()->lock);
    80201aa2:	00000097          	auipc	ra,0x0
    80201aa6:	fbe080e7          	jalr	-66(ra) # 80201a60 <myproc>
    80201aaa:	fffff097          	auipc	ra,0xfffff
    80201aae:	c72080e7          	jalr	-910(ra) # 8020071c <release>
  if (first)
    80201ab2:	0000a797          	auipc	a5,0xa
    80201ab6:	54e7a783          	lw	a5,1358(a5) # 8020c000 <first.1718>
    80201aba:	eb91                	bnez	a5,80201ace <forkret+0x36>
  usertrapret();
    80201abc:	00001097          	auipc	ra,0x1
    80201ac0:	f40080e7          	jalr	-192(ra) # 802029fc <usertrapret>
}
    80201ac4:	60e2                	ld	ra,24(sp)
    80201ac6:	6442                	ld	s0,16(sp)
    80201ac8:	64a2                	ld	s1,8(sp)
    80201aca:	6105                	addi	sp,sp,32
    80201acc:	8082                	ret
    first = 0;
    80201ace:	0000a797          	auipc	a5,0xa
    80201ad2:	5207a923          	sw	zero,1330(a5) # 8020c000 <first.1718>
    fat32_init();
    80201ad6:	00005097          	auipc	ra,0x5
    80201ada:	0ac080e7          	jalr	172(ra) # 80206b82 <fat32_init>
    myproc()->cwd = ename("/");
    80201ade:	00000097          	auipc	ra,0x0
    80201ae2:	f82080e7          	jalr	-126(ra) # 80201a60 <myproc>
    80201ae6:	84aa                	mv	s1,a0
    80201ae8:	00009517          	auipc	a0,0x9
    80201aec:	b4850513          	addi	a0,a0,-1208 # 8020a630 <digits+0x2b0>
    80201af0:	00006097          	auipc	ra,0x6
    80201af4:	2ec080e7          	jalr	748(ra) # 80207ddc <ename>
    80201af8:	4ca4bc23          	sd	a0,1240(s1)
    80201afc:	b7c1                	j	80201abc <forkret+0x24>

0000000080201afe <allocpid>:
{
    80201afe:	1101                	addi	sp,sp,-32
    80201b00:	ec06                	sd	ra,24(sp)
    80201b02:	e822                	sd	s0,16(sp)
    80201b04:	e426                	sd	s1,8(sp)
    80201b06:	e04a                	sd	s2,0(sp)
    80201b08:	1000                	addi	s0,sp,32
  acquire(&pid_lock);
    80201b0a:	00015917          	auipc	s2,0x15
    80201b0e:	55690913          	addi	s2,s2,1366 # 80217060 <pid_lock>
    80201b12:	854a                	mv	a0,s2
    80201b14:	fffff097          	auipc	ra,0xfffff
    80201b18:	bb4080e7          	jalr	-1100(ra) # 802006c8 <acquire>
  pid = nextpid;
    80201b1c:	0000a797          	auipc	a5,0xa
    80201b20:	4e478793          	addi	a5,a5,1252 # 8020c000 <first.1718>
    80201b24:	43c4                	lw	s1,4(a5)
  nextpid = nextpid + 1;
    80201b26:	0014871b          	addiw	a4,s1,1
    80201b2a:	c3d8                	sw	a4,4(a5)
  release(&pid_lock);
    80201b2c:	854a                	mv	a0,s2
    80201b2e:	fffff097          	auipc	ra,0xfffff
    80201b32:	bee080e7          	jalr	-1042(ra) # 8020071c <release>
}
    80201b36:	8526                	mv	a0,s1
    80201b38:	60e2                	ld	ra,24(sp)
    80201b3a:	6442                	ld	s0,16(sp)
    80201b3c:	64a2                	ld	s1,8(sp)
    80201b3e:	6902                	ld	s2,0(sp)
    80201b40:	6105                	addi	sp,sp,32
    80201b42:	8082                	ret

0000000080201b44 <proc_pagetable>:
{
    80201b44:	1101                	addi	sp,sp,-32
    80201b46:	ec06                	sd	ra,24(sp)
    80201b48:	e822                	sd	s0,16(sp)
    80201b4a:	e426                	sd	s1,8(sp)
    80201b4c:	e04a                	sd	s2,0(sp)
    80201b4e:	1000                	addi	s0,sp,32
    80201b50:	892a                	mv	s2,a0
  pagetable = uvmcreate();
    80201b52:	fffff097          	auipc	ra,0xfffff
    80201b56:	3a2080e7          	jalr	930(ra) # 80200ef4 <uvmcreate>
    80201b5a:	84aa                	mv	s1,a0
  if (pagetable == 0)
    80201b5c:	c121                	beqz	a0,80201b9c <proc_pagetable+0x58>
  if (mappages(pagetable, TRAMPOLINE, PGSIZE,
    80201b5e:	4729                	li	a4,10
    80201b60:	0000c697          	auipc	a3,0xc
    80201b64:	5586b683          	ld	a3,1368(a3) # 8020e0b8 <_GLOBAL_OFFSET_TABLE_+0x8>
    80201b68:	6605                	lui	a2,0x1
    80201b6a:	040005b7          	lui	a1,0x4000
    80201b6e:	15fd                	addi	a1,a1,-1
    80201b70:	05b2                	slli	a1,a1,0xc
    80201b72:	fffff097          	auipc	ra,0xfffff
    80201b76:	104080e7          	jalr	260(ra) # 80200c76 <mappages>
    80201b7a:	02054863          	bltz	a0,80201baa <proc_pagetable+0x66>
  if (mappages(pagetable, TRAPFRAME, PGSIZE,
    80201b7e:	4719                	li	a4,6
    80201b80:	06093683          	ld	a3,96(s2)
    80201b84:	6605                	lui	a2,0x1
    80201b86:	020005b7          	lui	a1,0x2000
    80201b8a:	15fd                	addi	a1,a1,-1
    80201b8c:	05b6                	slli	a1,a1,0xd
    80201b8e:	8526                	mv	a0,s1
    80201b90:	fffff097          	auipc	ra,0xfffff
    80201b94:	0e6080e7          	jalr	230(ra) # 80200c76 <mappages>
    80201b98:	02054163          	bltz	a0,80201bba <proc_pagetable+0x76>
}
    80201b9c:	8526                	mv	a0,s1
    80201b9e:	60e2                	ld	ra,24(sp)
    80201ba0:	6442                	ld	s0,16(sp)
    80201ba2:	64a2                	ld	s1,8(sp)
    80201ba4:	6902                	ld	s2,0(sp)
    80201ba6:	6105                	addi	sp,sp,32
    80201ba8:	8082                	ret
    uvmfree(pagetable, 0);
    80201baa:	4581                	li	a1,0
    80201bac:	8526                	mv	a0,s1
    80201bae:	fffff097          	auipc	ra,0xfffff
    80201bb2:	5ca080e7          	jalr	1482(ra) # 80201178 <uvmfree>
    return NULL;
    80201bb6:	4481                	li	s1,0
    80201bb8:	b7d5                	j	80201b9c <proc_pagetable+0x58>
    vmunmap(pagetable, TRAMPOLINE, 1, 0);
    80201bba:	4681                	li	a3,0
    80201bbc:	4605                	li	a2,1
    80201bbe:	040005b7          	lui	a1,0x4000
    80201bc2:	15fd                	addi	a1,a1,-1
    80201bc4:	05b2                	slli	a1,a1,0xc
    80201bc6:	8526                	mv	a0,s1
    80201bc8:	fffff097          	auipc	ra,0xfffff
    80201bcc:	268080e7          	jalr	616(ra) # 80200e30 <vmunmap>
    uvmfree(pagetable, 0);
    80201bd0:	4581                	li	a1,0
    80201bd2:	8526                	mv	a0,s1
    80201bd4:	fffff097          	auipc	ra,0xfffff
    80201bd8:	5a4080e7          	jalr	1444(ra) # 80201178 <uvmfree>
    return NULL;
    80201bdc:	4481                	li	s1,0
    80201bde:	bf7d                	j	80201b9c <proc_pagetable+0x58>

0000000080201be0 <proc_freepagetable>:
{
    80201be0:	1101                	addi	sp,sp,-32
    80201be2:	ec06                	sd	ra,24(sp)
    80201be4:	e822                	sd	s0,16(sp)
    80201be6:	e426                	sd	s1,8(sp)
    80201be8:	e04a                	sd	s2,0(sp)
    80201bea:	1000                	addi	s0,sp,32
    80201bec:	84aa                	mv	s1,a0
    80201bee:	892e                	mv	s2,a1
  vmunmap(pagetable, TRAMPOLINE, 1, 0);
    80201bf0:	4681                	li	a3,0
    80201bf2:	4605                	li	a2,1
    80201bf4:	040005b7          	lui	a1,0x4000
    80201bf8:	15fd                	addi	a1,a1,-1
    80201bfa:	05b2                	slli	a1,a1,0xc
    80201bfc:	fffff097          	auipc	ra,0xfffff
    80201c00:	234080e7          	jalr	564(ra) # 80200e30 <vmunmap>
  vmunmap(pagetable, TRAPFRAME, 1, 0);
    80201c04:	4681                	li	a3,0
    80201c06:	4605                	li	a2,1
    80201c08:	020005b7          	lui	a1,0x2000
    80201c0c:	15fd                	addi	a1,a1,-1
    80201c0e:	05b6                	slli	a1,a1,0xd
    80201c10:	8526                	mv	a0,s1
    80201c12:	fffff097          	auipc	ra,0xfffff
    80201c16:	21e080e7          	jalr	542(ra) # 80200e30 <vmunmap>
  uvmfree(pagetable, sz);
    80201c1a:	85ca                	mv	a1,s2
    80201c1c:	8526                	mv	a0,s1
    80201c1e:	fffff097          	auipc	ra,0xfffff
    80201c22:	55a080e7          	jalr	1370(ra) # 80201178 <uvmfree>
}
    80201c26:	60e2                	ld	ra,24(sp)
    80201c28:	6442                	ld	s0,16(sp)
    80201c2a:	64a2                	ld	s1,8(sp)
    80201c2c:	6902                	ld	s2,0(sp)
    80201c2e:	6105                	addi	sp,sp,32
    80201c30:	8082                	ret

0000000080201c32 <freeproc>:
{
    80201c32:	1101                	addi	sp,sp,-32
    80201c34:	ec06                	sd	ra,24(sp)
    80201c36:	e822                	sd	s0,16(sp)
    80201c38:	e426                	sd	s1,8(sp)
    80201c3a:	1000                	addi	s0,sp,32
    80201c3c:	84aa                	mv	s1,a0
  if (p->trapframe)
    80201c3e:	7128                	ld	a0,96(a0)
    80201c40:	c509                	beqz	a0,80201c4a <freeproc+0x18>
    kfree((void *)p->trapframe);
    80201c42:	fffff097          	auipc	ra,0xfffff
    80201c46:	802080e7          	jalr	-2046(ra) # 80200444 <kfree>
  p->trapframe = 0;
    80201c4a:	0604b023          	sd	zero,96(s1)
  if (p->kpagetable)
    80201c4e:	6ca8                	ld	a0,88(s1)
    80201c50:	c511                	beqz	a0,80201c5c <freeproc+0x2a>
    kvmfree(p->kpagetable, 1);
    80201c52:	4585                	li	a1,1
    80201c54:	00000097          	auipc	ra,0x0
    80201c58:	a2a080e7          	jalr	-1494(ra) # 8020167e <kvmfree>
  p->kpagetable = 0;
    80201c5c:	0404bc23          	sd	zero,88(s1)
  if (p->pagetable)
    80201c60:	68a8                	ld	a0,80(s1)
    80201c62:	c511                	beqz	a0,80201c6e <freeproc+0x3c>
    proc_freepagetable(p->pagetable, p->sz);
    80201c64:	64ac                	ld	a1,72(s1)
    80201c66:	00000097          	auipc	ra,0x0
    80201c6a:	f7a080e7          	jalr	-134(ra) # 80201be0 <proc_freepagetable>
  p->pagetable = 0;
    80201c6e:	0404b823          	sd	zero,80(s1)
  p->sz = 0;
    80201c72:	0404b423          	sd	zero,72(s1)
  p->pid = 0;
    80201c76:	0204ac23          	sw	zero,56(s1)
  p->parent = 0;
    80201c7a:	0204b023          	sd	zero,32(s1)
  p->name[0] = 0;
    80201c7e:	4e048023          	sb	zero,1248(s1)
  p->chan = 0;
    80201c82:	0204b423          	sd	zero,40(s1)
  p->killed = 0;
    80201c86:	0204a823          	sw	zero,48(s1)
  p->xstate = 0;
    80201c8a:	0204aa23          	sw	zero,52(s1)
  p->state = UNUSED;
    80201c8e:	0004ac23          	sw	zero,24(s1)
}
    80201c92:	60e2                	ld	ra,24(sp)
    80201c94:	6442                	ld	s0,16(sp)
    80201c96:	64a2                	ld	s1,8(sp)
    80201c98:	6105                	addi	sp,sp,32
    80201c9a:	8082                	ret

0000000080201c9c <allocproc>:
{
    80201c9c:	7179                	addi	sp,sp,-48
    80201c9e:	f406                	sd	ra,40(sp)
    80201ca0:	f022                	sd	s0,32(sp)
    80201ca2:	ec26                	sd	s1,24(sp)
    80201ca4:	e84a                	sd	s2,16(sp)
    80201ca6:	e44e                	sd	s3,8(sp)
    80201ca8:	e052                	sd	s4,0(sp)
    80201caa:	1800                	addi	s0,sp,48
  for (p = proc; p < &proc[NPROC]; p++)
    80201cac:	00015497          	auipc	s1,0x15
    80201cb0:	4d448493          	addi	s1,s1,1236 # 80217180 <proc>
    80201cb4:	6985                	lui	s3,0x1
    80201cb6:	80098993          	addi	s3,s3,-2048 # 800 <_entry-0x801ff800>
    80201cba:	0002ea17          	auipc	s4,0x2e
    80201cbe:	4c6a0a13          	addi	s4,s4,1222 # 80230180 <bcache>
    acquire(&p->lock);
    80201cc2:	8526                	mv	a0,s1
    80201cc4:	fffff097          	auipc	ra,0xfffff
    80201cc8:	a04080e7          	jalr	-1532(ra) # 802006c8 <acquire>
    if (p->state == UNUSED)
    80201ccc:	4c9c                	lw	a5,24(s1)
    80201cce:	cb99                	beqz	a5,80201ce4 <allocproc+0x48>
      release(&p->lock);
    80201cd0:	8526                	mv	a0,s1
    80201cd2:	fffff097          	auipc	ra,0xfffff
    80201cd6:	a4a080e7          	jalr	-1462(ra) # 8020071c <release>
  for (p = proc; p < &proc[NPROC]; p++)
    80201cda:	94ce                	add	s1,s1,s3
    80201cdc:	ff4493e3          	bne	s1,s4,80201cc2 <allocproc+0x26>
  return NULL;
    80201ce0:	4481                	li	s1,0
    80201ce2:	a051                	j	80201d66 <allocproc+0xca>
  p->pid = allocpid();
    80201ce4:	00000097          	auipc	ra,0x0
    80201ce8:	e1a080e7          	jalr	-486(ra) # 80201afe <allocpid>
    80201cec:	dc88                	sw	a0,56(s1)
  if ((p->trapframe = (struct trapframe *)kalloc()) == NULL)
    80201cee:	fffff097          	auipc	ra,0xfffff
    80201cf2:	86e080e7          	jalr	-1938(ra) # 8020055c <kalloc>
    80201cf6:	89aa                	mv	s3,a0
    80201cf8:	f0a8                	sd	a0,96(s1)
    80201cfa:	cd3d                	beqz	a0,80201d78 <allocproc+0xdc>
  if ((p->pagetable = proc_pagetable(p)) == NULL ||
    80201cfc:	8526                	mv	a0,s1
    80201cfe:	00000097          	auipc	ra,0x0
    80201d02:	e46080e7          	jalr	-442(ra) # 80201b44 <proc_pagetable>
    80201d06:	e8a8                	sd	a0,80(s1)
    80201d08:	cd3d                	beqz	a0,80201d86 <allocproc+0xea>
      (p->kpagetable = proc_kpagetable()) == NULL)
    80201d0a:	00000097          	auipc	ra,0x0
    80201d0e:	9ce080e7          	jalr	-1586(ra) # 802016d8 <proc_kpagetable>
    80201d12:	eca8                	sd	a0,88(s1)
  if ((p->pagetable = proc_pagetable(p)) == NULL ||
    80201d14:	c92d                	beqz	a0,80201d86 <allocproc+0xea>
  p->kstack = VKSTACK;
    80201d16:	0fb00793          	li	a5,251
    80201d1a:	07fa                	slli	a5,a5,0x1e
    80201d1c:	e0bc                	sd	a5,64(s1)
  memset(&p->context, 0, sizeof(p->context));
    80201d1e:	07000613          	li	a2,112
    80201d22:	4581                	li	a1,0
    80201d24:	06848513          	addi	a0,s1,104
    80201d28:	fffff097          	auipc	ra,0xfffff
    80201d2c:	a3c080e7          	jalr	-1476(ra) # 80200764 <memset>
  p->context.ra = (uint64)forkret;
    80201d30:	00000797          	auipc	a5,0x0
    80201d34:	d6878793          	addi	a5,a5,-664 # 80201a98 <forkret>
    80201d38:	f4bc                	sd	a5,104(s1)
  p->context.sp = p->kstack + PGSIZE;
    80201d3a:	60bc                	ld	a5,64(s1)
    80201d3c:	6705                	lui	a4,0x1
    80201d3e:	97ba                	add	a5,a5,a4
    80201d40:	f8bc                	sd	a5,112(s1)
  for(int i=0;i<VMA_MAX;i++)
    80201d42:	4f848793          	addi	a5,s1,1272
    80201d46:	7f848913          	addi	s2,s1,2040
    p->vma[i].valid=0;
    80201d4a:	0007a023          	sw	zero,0(a5)
    p->vma[i].mapcnt=0;
    80201d4e:	0207b423          	sd	zero,40(a5)
  for(int i=0;i<VMA_MAX;i++)
    80201d52:	03078793          	addi	a5,a5,48
    80201d56:	ff279ae3          	bne	a5,s2,80201d4a <allocproc+0xae>
  p->maxaddr=MAXVA-2*PGSIZE;
    80201d5a:	020007b7          	lui	a5,0x2000
    80201d5e:	17fd                	addi	a5,a5,-1
    80201d60:	07b6                	slli	a5,a5,0xd
    80201d62:	7ef4bc23          	sd	a5,2040(s1)
}
    80201d66:	8526                	mv	a0,s1
    80201d68:	70a2                	ld	ra,40(sp)
    80201d6a:	7402                	ld	s0,32(sp)
    80201d6c:	64e2                	ld	s1,24(sp)
    80201d6e:	6942                	ld	s2,16(sp)
    80201d70:	69a2                	ld	s3,8(sp)
    80201d72:	6a02                	ld	s4,0(sp)
    80201d74:	6145                	addi	sp,sp,48
    80201d76:	8082                	ret
    release(&p->lock);
    80201d78:	8526                	mv	a0,s1
    80201d7a:	fffff097          	auipc	ra,0xfffff
    80201d7e:	9a2080e7          	jalr	-1630(ra) # 8020071c <release>
    return NULL;
    80201d82:	84ce                	mv	s1,s3
    80201d84:	b7cd                	j	80201d66 <allocproc+0xca>
    freeproc(p);
    80201d86:	8526                	mv	a0,s1
    80201d88:	00000097          	auipc	ra,0x0
    80201d8c:	eaa080e7          	jalr	-342(ra) # 80201c32 <freeproc>
    release(&p->lock);
    80201d90:	8526                	mv	a0,s1
    80201d92:	fffff097          	auipc	ra,0xfffff
    80201d96:	98a080e7          	jalr	-1654(ra) # 8020071c <release>
    return NULL;
    80201d9a:	4481                	li	s1,0
    80201d9c:	b7e9                	j	80201d66 <allocproc+0xca>

0000000080201d9e <userinit>:
{
    80201d9e:	1101                	addi	sp,sp,-32
    80201da0:	ec06                	sd	ra,24(sp)
    80201da2:	e822                	sd	s0,16(sp)
    80201da4:	e426                	sd	s1,8(sp)
    80201da6:	1000                	addi	s0,sp,32
  p = allocproc();
    80201da8:	00000097          	auipc	ra,0x0
    80201dac:	ef4080e7          	jalr	-268(ra) # 80201c9c <allocproc>
    80201db0:	84aa                	mv	s1,a0
  initproc = p;
    80201db2:	00015797          	auipc	a5,0x15
    80201db6:	3ca7b323          	sd	a0,966(a5) # 80217178 <initproc>
  uvminit(p->pagetable, p->kpagetable, initcode, sizeof(initcode));
    80201dba:	03400693          	li	a3,52
    80201dbe:	0000a617          	auipc	a2,0xa
    80201dc2:	24a60613          	addi	a2,a2,586 # 8020c008 <initcode>
    80201dc6:	6d2c                	ld	a1,88(a0)
    80201dc8:	6928                	ld	a0,80(a0)
    80201dca:	fffff097          	auipc	ra,0xfffff
    80201dce:	158080e7          	jalr	344(ra) # 80200f22 <uvminit>
  p->sz = PGSIZE;
    80201dd2:	6785                	lui	a5,0x1
    80201dd4:	e4bc                	sd	a5,72(s1)
  p->trapframe->epc = 0x0;   // user program counter
    80201dd6:	70b8                	ld	a4,96(s1)
    80201dd8:	00073c23          	sd	zero,24(a4) # 1018 <_entry-0x801fefe8>
  p->trapframe->sp = PGSIZE; // user stack pointer
    80201ddc:	70b8                	ld	a4,96(s1)
    80201dde:	fb1c                	sd	a5,48(a4)
  safestrcpy(p->name, "initcode", sizeof(p->name));
    80201de0:	4641                	li	a2,16
    80201de2:	00009597          	auipc	a1,0x9
    80201de6:	85658593          	addi	a1,a1,-1962 # 8020a638 <digits+0x2b8>
    80201dea:	4e048513          	addi	a0,s1,1248
    80201dee:	fffff097          	auipc	ra,0xfffff
    80201df2:	acc080e7          	jalr	-1332(ra) # 802008ba <safestrcpy>
  p->state = RUNNABLE;
    80201df6:	4789                	li	a5,2
    80201df8:	cc9c                	sw	a5,24(s1)
  p->tmask = 0;
    80201dfa:	4e04a823          	sw	zero,1264(s1)
  release(&p->lock);
    80201dfe:	8526                	mv	a0,s1
    80201e00:	fffff097          	auipc	ra,0xfffff
    80201e04:	91c080e7          	jalr	-1764(ra) # 8020071c <release>
}
    80201e08:	60e2                	ld	ra,24(sp)
    80201e0a:	6442                	ld	s0,16(sp)
    80201e0c:	64a2                	ld	s1,8(sp)
    80201e0e:	6105                	addi	sp,sp,32
    80201e10:	8082                	ret

0000000080201e12 <growproc>:
{
    80201e12:	1101                	addi	sp,sp,-32
    80201e14:	ec06                	sd	ra,24(sp)
    80201e16:	e822                	sd	s0,16(sp)
    80201e18:	e426                	sd	s1,8(sp)
    80201e1a:	e04a                	sd	s2,0(sp)
    80201e1c:	1000                	addi	s0,sp,32
    80201e1e:	84aa                	mv	s1,a0
  struct proc *p = myproc();
    80201e20:	00000097          	auipc	ra,0x0
    80201e24:	c40080e7          	jalr	-960(ra) # 80201a60 <myproc>
    80201e28:	892a                	mv	s2,a0
  sz = p->sz;
    80201e2a:	6530                	ld	a2,72(a0)
    80201e2c:	0006069b          	sext.w	a3,a2
  if (n > 0)
    80201e30:	00904f63          	bgtz	s1,80201e4e <growproc+0x3c>
  else if (n < 0)
    80201e34:	0204cd63          	bltz	s1,80201e6e <growproc+0x5c>
  p->sz = sz;
    80201e38:	1682                	slli	a3,a3,0x20
    80201e3a:	9281                	srli	a3,a3,0x20
    80201e3c:	04d93423          	sd	a3,72(s2)
  return 0;
    80201e40:	4501                	li	a0,0
}
    80201e42:	60e2                	ld	ra,24(sp)
    80201e44:	6442                	ld	s0,16(sp)
    80201e46:	64a2                	ld	s1,8(sp)
    80201e48:	6902                	ld	s2,0(sp)
    80201e4a:	6105                	addi	sp,sp,32
    80201e4c:	8082                	ret
    if ((sz = uvmalloc(p->pagetable, p->kpagetable, sz, sz + n)) == 0)
    80201e4e:	9ea5                	addw	a3,a3,s1
    80201e50:	1682                	slli	a3,a3,0x20
    80201e52:	9281                	srli	a3,a3,0x20
    80201e54:	1602                	slli	a2,a2,0x20
    80201e56:	9201                	srli	a2,a2,0x20
    80201e58:	6d2c                	ld	a1,88(a0)
    80201e5a:	6928                	ld	a0,80(a0)
    80201e5c:	fffff097          	auipc	ra,0xfffff
    80201e60:	1bc080e7          	jalr	444(ra) # 80201018 <uvmalloc>
    80201e64:	0005069b          	sext.w	a3,a0
    80201e68:	fae1                	bnez	a3,80201e38 <growproc+0x26>
      return -1;
    80201e6a:	557d                	li	a0,-1
    80201e6c:	bfd9                	j	80201e42 <growproc+0x30>
    sz = uvmdealloc(p->pagetable, p->kpagetable, sz, sz + n);
    80201e6e:	9ea5                	addw	a3,a3,s1
    80201e70:	1682                	slli	a3,a3,0x20
    80201e72:	9281                	srli	a3,a3,0x20
    80201e74:	1602                	slli	a2,a2,0x20
    80201e76:	9201                	srli	a2,a2,0x20
    80201e78:	6d2c                	ld	a1,88(a0)
    80201e7a:	6928                	ld	a0,80(a0)
    80201e7c:	fffff097          	auipc	ra,0xfffff
    80201e80:	130080e7          	jalr	304(ra) # 80200fac <uvmdealloc>
    80201e84:	0005069b          	sext.w	a3,a0
    80201e88:	bf45                	j	80201e38 <growproc+0x26>

0000000080201e8a <fork>:
{
    80201e8a:	7179                	addi	sp,sp,-48
    80201e8c:	f406                	sd	ra,40(sp)
    80201e8e:	f022                	sd	s0,32(sp)
    80201e90:	ec26                	sd	s1,24(sp)
    80201e92:	e84a                	sd	s2,16(sp)
    80201e94:	e44e                	sd	s3,8(sp)
    80201e96:	e052                	sd	s4,0(sp)
    80201e98:	1800                	addi	s0,sp,48
  struct proc *p = myproc();
    80201e9a:	00000097          	auipc	ra,0x0
    80201e9e:	bc6080e7          	jalr	-1082(ra) # 80201a60 <myproc>
    80201ea2:	892a                	mv	s2,a0
  if ((np = allocproc()) == NULL)
    80201ea4:	00000097          	auipc	ra,0x0
    80201ea8:	df8080e7          	jalr	-520(ra) # 80201c9c <allocproc>
    80201eac:	c57d                	beqz	a0,80201f9a <fork+0x110>
    80201eae:	8a2a                	mv	s4,a0
  if (uvmcopy(p->pagetable, np->pagetable, np->kpagetable, p->sz) < 0)
    80201eb0:	04893683          	ld	a3,72(s2)
    80201eb4:	6d30                	ld	a2,88(a0)
    80201eb6:	692c                	ld	a1,80(a0)
    80201eb8:	05093503          	ld	a0,80(s2)
    80201ebc:	fffff097          	auipc	ra,0xfffff
    80201ec0:	2f4080e7          	jalr	756(ra) # 802011b0 <uvmcopy>
    80201ec4:	04054c63          	bltz	a0,80201f1c <fork+0x92>
  np->sz = p->sz;
    80201ec8:	04893783          	ld	a5,72(s2)
    80201ecc:	04fa3423          	sd	a5,72(s4)
  np->parent = p;
    80201ed0:	032a3023          	sd	s2,32(s4)
  np->tmask = p->tmask;
    80201ed4:	4f092783          	lw	a5,1264(s2)
    80201ed8:	4efa2823          	sw	a5,1264(s4)
  *(np->trapframe) = *(p->trapframe);
    80201edc:	06093683          	ld	a3,96(s2)
    80201ee0:	87b6                	mv	a5,a3
    80201ee2:	060a3703          	ld	a4,96(s4)
    80201ee6:	12068693          	addi	a3,a3,288
    80201eea:	0007b803          	ld	a6,0(a5) # 1000 <_entry-0x801ff000>
    80201eee:	6788                	ld	a0,8(a5)
    80201ef0:	6b8c                	ld	a1,16(a5)
    80201ef2:	6f90                	ld	a2,24(a5)
    80201ef4:	01073023          	sd	a6,0(a4)
    80201ef8:	e708                	sd	a0,8(a4)
    80201efa:	eb0c                	sd	a1,16(a4)
    80201efc:	ef10                	sd	a2,24(a4)
    80201efe:	02078793          	addi	a5,a5,32
    80201f02:	02070713          	addi	a4,a4,32
    80201f06:	fed792e3          	bne	a5,a3,80201eea <fork+0x60>
  np->trapframe->a0 = 0;
    80201f0a:	060a3783          	ld	a5,96(s4)
    80201f0e:	0607b823          	sd	zero,112(a5)
    80201f12:	0d800493          	li	s1,216
  for (i = 0; i < NOFILE; i++)
    80201f16:	4d800993          	li	s3,1240
    80201f1a:	a03d                	j	80201f48 <fork+0xbe>
    freeproc(np);
    80201f1c:	8552                	mv	a0,s4
    80201f1e:	00000097          	auipc	ra,0x0
    80201f22:	d14080e7          	jalr	-748(ra) # 80201c32 <freeproc>
    release(&np->lock);
    80201f26:	8552                	mv	a0,s4
    80201f28:	ffffe097          	auipc	ra,0xffffe
    80201f2c:	7f4080e7          	jalr	2036(ra) # 8020071c <release>
    return -1;
    80201f30:	54fd                	li	s1,-1
    80201f32:	a899                	j	80201f88 <fork+0xfe>
      np->ofile[i] = filedup(p->ofile[i]);
    80201f34:	00002097          	auipc	ra,0x2
    80201f38:	09a080e7          	jalr	154(ra) # 80203fce <filedup>
    80201f3c:	009a07b3          	add	a5,s4,s1
    80201f40:	e388                	sd	a0,0(a5)
  for (i = 0; i < NOFILE; i++)
    80201f42:	04a1                	addi	s1,s1,8
    80201f44:	01348763          	beq	s1,s3,80201f52 <fork+0xc8>
    if (p->ofile[i])
    80201f48:	009907b3          	add	a5,s2,s1
    80201f4c:	6388                	ld	a0,0(a5)
    80201f4e:	f17d                	bnez	a0,80201f34 <fork+0xaa>
    80201f50:	bfcd                	j	80201f42 <fork+0xb8>
  np->cwd = edup(p->cwd);
    80201f52:	4d893503          	ld	a0,1240(s2)
    80201f56:	00005097          	auipc	ra,0x5
    80201f5a:	47e080e7          	jalr	1150(ra) # 802073d4 <edup>
    80201f5e:	4caa3c23          	sd	a0,1240(s4)
  safestrcpy(np->name, p->name, sizeof(p->name));
    80201f62:	4641                	li	a2,16
    80201f64:	4e090593          	addi	a1,s2,1248
    80201f68:	4e0a0513          	addi	a0,s4,1248
    80201f6c:	fffff097          	auipc	ra,0xfffff
    80201f70:	94e080e7          	jalr	-1714(ra) # 802008ba <safestrcpy>
  pid = np->pid;
    80201f74:	038a2483          	lw	s1,56(s4)
  np->state = RUNNABLE;
    80201f78:	4789                	li	a5,2
    80201f7a:	00fa2c23          	sw	a5,24(s4)
  release(&np->lock);
    80201f7e:	8552                	mv	a0,s4
    80201f80:	ffffe097          	auipc	ra,0xffffe
    80201f84:	79c080e7          	jalr	1948(ra) # 8020071c <release>
}
    80201f88:	8526                	mv	a0,s1
    80201f8a:	70a2                	ld	ra,40(sp)
    80201f8c:	7402                	ld	s0,32(sp)
    80201f8e:	64e2                	ld	s1,24(sp)
    80201f90:	6942                	ld	s2,16(sp)
    80201f92:	69a2                	ld	s3,8(sp)
    80201f94:	6a02                	ld	s4,0(sp)
    80201f96:	6145                	addi	sp,sp,48
    80201f98:	8082                	ret
    return -1;
    80201f9a:	54fd                	li	s1,-1
    80201f9c:	b7f5                	j	80201f88 <fork+0xfe>

0000000080201f9e <reparent>:
{
    80201f9e:	7139                	addi	sp,sp,-64
    80201fa0:	fc06                	sd	ra,56(sp)
    80201fa2:	f822                	sd	s0,48(sp)
    80201fa4:	f426                	sd	s1,40(sp)
    80201fa6:	f04a                	sd	s2,32(sp)
    80201fa8:	ec4e                	sd	s3,24(sp)
    80201faa:	e852                	sd	s4,16(sp)
    80201fac:	e456                	sd	s5,8(sp)
    80201fae:	0080                	addi	s0,sp,64
    80201fb0:	89aa                	mv	s3,a0
  for (pp = proc; pp < &proc[NPROC]; pp++)
    80201fb2:	00015497          	auipc	s1,0x15
    80201fb6:	1ce48493          	addi	s1,s1,462 # 80217180 <proc>
      pp->parent = initproc;
    80201fba:	00015a97          	auipc	s5,0x15
    80201fbe:	0a6a8a93          	addi	s5,s5,166 # 80217060 <pid_lock>
  for (pp = proc; pp < &proc[NPROC]; pp++)
    80201fc2:	6905                	lui	s2,0x1
    80201fc4:	80090913          	addi	s2,s2,-2048 # 800 <_entry-0x801ff800>
    80201fc8:	0002ea17          	auipc	s4,0x2e
    80201fcc:	1b8a0a13          	addi	s4,s4,440 # 80230180 <bcache>
    80201fd0:	a021                	j	80201fd8 <reparent+0x3a>
    80201fd2:	94ca                	add	s1,s1,s2
    80201fd4:	03448363          	beq	s1,s4,80201ffa <reparent+0x5c>
    if (pp->parent == p)
    80201fd8:	709c                	ld	a5,32(s1)
    80201fda:	ff379ce3          	bne	a5,s3,80201fd2 <reparent+0x34>
      acquire(&pp->lock);
    80201fde:	8526                	mv	a0,s1
    80201fe0:	ffffe097          	auipc	ra,0xffffe
    80201fe4:	6e8080e7          	jalr	1768(ra) # 802006c8 <acquire>
      pp->parent = initproc;
    80201fe8:	118ab783          	ld	a5,280(s5)
    80201fec:	f09c                	sd	a5,32(s1)
      release(&pp->lock);
    80201fee:	8526                	mv	a0,s1
    80201ff0:	ffffe097          	auipc	ra,0xffffe
    80201ff4:	72c080e7          	jalr	1836(ra) # 8020071c <release>
    80201ff8:	bfe9                	j	80201fd2 <reparent+0x34>
}
    80201ffa:	70e2                	ld	ra,56(sp)
    80201ffc:	7442                	ld	s0,48(sp)
    80201ffe:	74a2                	ld	s1,40(sp)
    80202000:	7902                	ld	s2,32(sp)
    80202002:	69e2                	ld	s3,24(sp)
    80202004:	6a42                	ld	s4,16(sp)
    80202006:	6aa2                	ld	s5,8(sp)
    80202008:	6121                	addi	sp,sp,64
    8020200a:	8082                	ret

000000008020200c <scheduler>:
{
    8020200c:	715d                	addi	sp,sp,-80
    8020200e:	e486                	sd	ra,72(sp)
    80202010:	e0a2                	sd	s0,64(sp)
    80202012:	fc26                	sd	s1,56(sp)
    80202014:	f84a                	sd	s2,48(sp)
    80202016:	f44e                	sd	s3,40(sp)
    80202018:	f052                	sd	s4,32(sp)
    8020201a:	ec56                	sd	s5,24(sp)
    8020201c:	e85a                	sd	s6,16(sp)
    8020201e:	e45e                	sd	s7,8(sp)
    80202020:	e062                	sd	s8,0(sp)
    80202022:	0880                	addi	s0,sp,80
    80202024:	8792                	mv	a5,tp
  int id = r_tp();
    80202026:	2781                	sext.w	a5,a5
  c->proc = 0;
    80202028:	00779b93          	slli	s7,a5,0x7
    8020202c:	00015717          	auipc	a4,0x15
    80202030:	03470713          	addi	a4,a4,52 # 80217060 <pid_lock>
    80202034:	975e                	add	a4,a4,s7
    80202036:	00073c23          	sd	zero,24(a4)
        swtch(&c->context, &p->context);
    8020203a:	00015717          	auipc	a4,0x15
    8020203e:	04670713          	addi	a4,a4,70 # 80217080 <cpus+0x8>
    80202042:	9bba                	add	s7,s7,a4
        c->proc = p;
    80202044:	079e                	slli	a5,a5,0x7
    80202046:	00015a97          	auipc	s5,0x15
    8020204a:	01aa8a93          	addi	s5,s5,26 # 80217060 <pid_lock>
    8020204e:	9abe                	add	s5,s5,a5
        w_satp(MAKE_SATP(p->kpagetable));
    80202050:	5a7d                	li	s4,-1
    80202052:	1a7e                	slli	s4,s4,0x3f
    for (p = proc; p < &proc[NPROC]; p++)
    80202054:	6985                	lui	s3,0x1
    80202056:	80098993          	addi	s3,s3,-2048 # 800 <_entry-0x801ff800>
    8020205a:	a8a5                	j	802020d2 <scheduler+0xc6>
        p->state = RUNNING;
    8020205c:	478d                	li	a5,3
    8020205e:	cc9c                	sw	a5,24(s1)
        c->proc = p;
    80202060:	009abc23          	sd	s1,24(s5)
        w_satp(MAKE_SATP(p->kpagetable));
    80202064:	6cbc                	ld	a5,88(s1)
    80202066:	83b1                	srli	a5,a5,0xc
    80202068:	0147e7b3          	or	a5,a5,s4
  asm volatile("csrw satp, %0" : : "r" (x));
    8020206c:	18079073          	csrw	satp,a5
  asm volatile("sfence.vma");
    80202070:	12000073          	sfence.vma
        swtch(&c->context, &p->context);
    80202074:	06848593          	addi	a1,s1,104
    80202078:	855e                	mv	a0,s7
    8020207a:	00001097          	auipc	ra,0x1
    8020207e:	8dc080e7          	jalr	-1828(ra) # 80202956 <swtch>
        w_satp(MAKE_SATP(kernel_pagetable));
    80202082:	000b3783          	ld	a5,0(s6) # 1000 <_entry-0x801ff000>
    80202086:	83b1                	srli	a5,a5,0xc
    80202088:	0147e7b3          	or	a5,a5,s4
  asm volatile("csrw satp, %0" : : "r" (x));
    8020208c:	18079073          	csrw	satp,a5
  asm volatile("sfence.vma");
    80202090:	12000073          	sfence.vma
        c->proc = 0;
    80202094:	000abc23          	sd	zero,24(s5)
        found = 1;
    80202098:	4c05                	li	s8,1
      release(&p->lock);
    8020209a:	8526                	mv	a0,s1
    8020209c:	ffffe097          	auipc	ra,0xffffe
    802020a0:	680080e7          	jalr	1664(ra) # 8020071c <release>
    for (p = proc; p < &proc[NPROC]; p++)
    802020a4:	94ce                	add	s1,s1,s3
    802020a6:	01248c63          	beq	s1,s2,802020be <scheduler+0xb2>
      acquire(&p->lock);
    802020aa:	8526                	mv	a0,s1
    802020ac:	ffffe097          	auipc	ra,0xffffe
    802020b0:	61c080e7          	jalr	1564(ra) # 802006c8 <acquire>
      if (p->state == RUNNABLE)
    802020b4:	4c98                	lw	a4,24(s1)
    802020b6:	4789                	li	a5,2
    802020b8:	fef711e3          	bne	a4,a5,8020209a <scheduler+0x8e>
    802020bc:	b745                	j	8020205c <scheduler+0x50>
    if (found == 0)
    802020be:	000c1a63          	bnez	s8,802020d2 <scheduler+0xc6>
  asm volatile("csrr %0, sstatus" : "=r" (x) );
    802020c2:	100027f3          	csrr	a5,sstatus
  w_sstatus(r_sstatus() | SSTATUS_SIE);
    802020c6:	0027e793          	ori	a5,a5,2
  asm volatile("csrw sstatus, %0" : : "r" (x));
    802020ca:	10079073          	csrw	sstatus,a5
      asm volatile("wfi");
    802020ce:	10500073          	wfi
  asm volatile("csrr %0, sstatus" : "=r" (x) );
    802020d2:	100027f3          	csrr	a5,sstatus
  w_sstatus(r_sstatus() | SSTATUS_SIE);
    802020d6:	0027e793          	ori	a5,a5,2
  asm volatile("csrw sstatus, %0" : : "r" (x));
    802020da:	10079073          	csrw	sstatus,a5
    int found = 0;
    802020de:	4c01                	li	s8,0
    for (p = proc; p < &proc[NPROC]; p++)
    802020e0:	00015497          	auipc	s1,0x15
    802020e4:	0a048493          	addi	s1,s1,160 # 80217180 <proc>
        w_satp(MAKE_SATP(kernel_pagetable));
    802020e8:	0000cb17          	auipc	s6,0xc
    802020ec:	018b3b03          	ld	s6,24(s6) # 8020e100 <_GLOBAL_OFFSET_TABLE_+0x50>
    for (p = proc; p < &proc[NPROC]; p++)
    802020f0:	0002e917          	auipc	s2,0x2e
    802020f4:	09090913          	addi	s2,s2,144 # 80230180 <bcache>
    802020f8:	bf4d                	j	802020aa <scheduler+0x9e>

00000000802020fa <sched>:
{
    802020fa:	7179                	addi	sp,sp,-48
    802020fc:	f406                	sd	ra,40(sp)
    802020fe:	f022                	sd	s0,32(sp)
    80202100:	ec26                	sd	s1,24(sp)
    80202102:	e84a                	sd	s2,16(sp)
    80202104:	e44e                	sd	s3,8(sp)
    80202106:	1800                	addi	s0,sp,48
  struct proc *p = myproc();
    80202108:	00000097          	auipc	ra,0x0
    8020210c:	958080e7          	jalr	-1704(ra) # 80201a60 <myproc>
    80202110:	84aa                	mv	s1,a0
  if (!holding(&p->lock))
    80202112:	ffffe097          	auipc	ra,0xffffe
    80202116:	588080e7          	jalr	1416(ra) # 8020069a <holding>
    8020211a:	c93d                	beqz	a0,80202190 <sched+0x96>
  asm volatile("mv %0, tp" : "=r" (x) );
    8020211c:	8792                	mv	a5,tp
  if (mycpu()->noff != 1)
    8020211e:	2781                	sext.w	a5,a5
    80202120:	079e                	slli	a5,a5,0x7
    80202122:	00015717          	auipc	a4,0x15
    80202126:	f3e70713          	addi	a4,a4,-194 # 80217060 <pid_lock>
    8020212a:	97ba                	add	a5,a5,a4
    8020212c:	0907a703          	lw	a4,144(a5)
    80202130:	4785                	li	a5,1
    80202132:	06f71763          	bne	a4,a5,802021a0 <sched+0xa6>
  if (p->state == RUNNING)
    80202136:	4c98                	lw	a4,24(s1)
    80202138:	478d                	li	a5,3
    8020213a:	06f70b63          	beq	a4,a5,802021b0 <sched+0xb6>
  asm volatile("csrr %0, sstatus" : "=r" (x) );
    8020213e:	100027f3          	csrr	a5,sstatus
  return (x & SSTATUS_SIE) != 0;
    80202142:	8b89                	andi	a5,a5,2
  if (intr_get())
    80202144:	efb5                	bnez	a5,802021c0 <sched+0xc6>
  asm volatile("mv %0, tp" : "=r" (x) );
    80202146:	8792                	mv	a5,tp
  intena = mycpu()->intena;
    80202148:	00015917          	auipc	s2,0x15
    8020214c:	f1890913          	addi	s2,s2,-232 # 80217060 <pid_lock>
    80202150:	2781                	sext.w	a5,a5
    80202152:	079e                	slli	a5,a5,0x7
    80202154:	97ca                	add	a5,a5,s2
    80202156:	0947a983          	lw	s3,148(a5)
    8020215a:	8792                	mv	a5,tp
  swtch(&p->context, &mycpu()->context);
    8020215c:	2781                	sext.w	a5,a5
    8020215e:	079e                	slli	a5,a5,0x7
    80202160:	00015597          	auipc	a1,0x15
    80202164:	f2058593          	addi	a1,a1,-224 # 80217080 <cpus+0x8>
    80202168:	95be                	add	a1,a1,a5
    8020216a:	06848513          	addi	a0,s1,104
    8020216e:	00000097          	auipc	ra,0x0
    80202172:	7e8080e7          	jalr	2024(ra) # 80202956 <swtch>
    80202176:	8792                	mv	a5,tp
  mycpu()->intena = intena;
    80202178:	2781                	sext.w	a5,a5
    8020217a:	079e                	slli	a5,a5,0x7
    8020217c:	97ca                	add	a5,a5,s2
    8020217e:	0937aa23          	sw	s3,148(a5)
}
    80202182:	70a2                	ld	ra,40(sp)
    80202184:	7402                	ld	s0,32(sp)
    80202186:	64e2                	ld	s1,24(sp)
    80202188:	6942                	ld	s2,16(sp)
    8020218a:	69a2                	ld	s3,8(sp)
    8020218c:	6145                	addi	sp,sp,48
    8020218e:	8082                	ret
    panic("sched p->lock");
    80202190:	00008517          	auipc	a0,0x8
    80202194:	4b850513          	addi	a0,a0,1208 # 8020a648 <digits+0x2c8>
    80202198:	ffffe097          	auipc	ra,0xffffe
    8020219c:	faa080e7          	jalr	-86(ra) # 80200142 <panic>
    panic("sched locks");
    802021a0:	00008517          	auipc	a0,0x8
    802021a4:	4b850513          	addi	a0,a0,1208 # 8020a658 <digits+0x2d8>
    802021a8:	ffffe097          	auipc	ra,0xffffe
    802021ac:	f9a080e7          	jalr	-102(ra) # 80200142 <panic>
    panic("sched running");
    802021b0:	00008517          	auipc	a0,0x8
    802021b4:	4b850513          	addi	a0,a0,1208 # 8020a668 <digits+0x2e8>
    802021b8:	ffffe097          	auipc	ra,0xffffe
    802021bc:	f8a080e7          	jalr	-118(ra) # 80200142 <panic>
    panic("sched interruptible");
    802021c0:	00008517          	auipc	a0,0x8
    802021c4:	4b850513          	addi	a0,a0,1208 # 8020a678 <digits+0x2f8>
    802021c8:	ffffe097          	auipc	ra,0xffffe
    802021cc:	f7a080e7          	jalr	-134(ra) # 80200142 <panic>

00000000802021d0 <exit>:
{
    802021d0:	7179                	addi	sp,sp,-48
    802021d2:	f406                	sd	ra,40(sp)
    802021d4:	f022                	sd	s0,32(sp)
    802021d6:	ec26                	sd	s1,24(sp)
    802021d8:	e84a                	sd	s2,16(sp)
    802021da:	e44e                	sd	s3,8(sp)
    802021dc:	e052                	sd	s4,0(sp)
    802021de:	1800                	addi	s0,sp,48
    802021e0:	8a2a                	mv	s4,a0
  struct proc *p = myproc();
    802021e2:	00000097          	auipc	ra,0x0
    802021e6:	87e080e7          	jalr	-1922(ra) # 80201a60 <myproc>
    802021ea:	89aa                	mv	s3,a0
  for (int fd = 0; fd < NOFILE; fd++)
    802021ec:	0d850493          	addi	s1,a0,216
    802021f0:	4d850913          	addi	s2,a0,1240
    802021f4:	a811                	j	80202208 <exit+0x38>
      fileclose(f);
    802021f6:	00002097          	auipc	ra,0x2
    802021fa:	e2a080e7          	jalr	-470(ra) # 80204020 <fileclose>
      p->ofile[fd] = 0;
    802021fe:	0004b023          	sd	zero,0(s1)
  for (int fd = 0; fd < NOFILE; fd++)
    80202202:	04a1                	addi	s1,s1,8
    80202204:	01248563          	beq	s1,s2,8020220e <exit+0x3e>
    if (p->ofile[fd])
    80202208:	6088                	ld	a0,0(s1)
    8020220a:	f575                	bnez	a0,802021f6 <exit+0x26>
    8020220c:	bfdd                	j	80202202 <exit+0x32>
  eput(p->cwd);
    8020220e:	4d89b503          	ld	a0,1240(s3)
    80202212:	00005097          	auipc	ra,0x5
    80202216:	4a4080e7          	jalr	1188(ra) # 802076b6 <eput>
  p->cwd = 0;
    8020221a:	4c09bc23          	sd	zero,1240(s3)
  acquire(&initproc->lock);
    8020221e:	00015497          	auipc	s1,0x15
    80202222:	e4248493          	addi	s1,s1,-446 # 80217060 <pid_lock>
    80202226:	1184b503          	ld	a0,280(s1)
    8020222a:	ffffe097          	auipc	ra,0xffffe
    8020222e:	49e080e7          	jalr	1182(ra) # 802006c8 <acquire>
  wakeup1(initproc);
    80202232:	1184b503          	ld	a0,280(s1)
    80202236:	fffff097          	auipc	ra,0xfffff
    8020223a:	636080e7          	jalr	1590(ra) # 8020186c <wakeup1>
  release(&initproc->lock);
    8020223e:	1184b503          	ld	a0,280(s1)
    80202242:	ffffe097          	auipc	ra,0xffffe
    80202246:	4da080e7          	jalr	1242(ra) # 8020071c <release>
  acquire(&p->lock);
    8020224a:	854e                	mv	a0,s3
    8020224c:	ffffe097          	auipc	ra,0xffffe
    80202250:	47c080e7          	jalr	1148(ra) # 802006c8 <acquire>
  struct proc *original_parent = p->parent;
    80202254:	0209b483          	ld	s1,32(s3)
  release(&p->lock);
    80202258:	854e                	mv	a0,s3
    8020225a:	ffffe097          	auipc	ra,0xffffe
    8020225e:	4c2080e7          	jalr	1218(ra) # 8020071c <release>
  acquire(&original_parent->lock);
    80202262:	8526                	mv	a0,s1
    80202264:	ffffe097          	auipc	ra,0xffffe
    80202268:	464080e7          	jalr	1124(ra) # 802006c8 <acquire>
  acquire(&p->lock);
    8020226c:	854e                	mv	a0,s3
    8020226e:	ffffe097          	auipc	ra,0xffffe
    80202272:	45a080e7          	jalr	1114(ra) # 802006c8 <acquire>
  reparent(p);
    80202276:	854e                	mv	a0,s3
    80202278:	00000097          	auipc	ra,0x0
    8020227c:	d26080e7          	jalr	-730(ra) # 80201f9e <reparent>
  wakeup1(original_parent);
    80202280:	8526                	mv	a0,s1
    80202282:	fffff097          	auipc	ra,0xfffff
    80202286:	5ea080e7          	jalr	1514(ra) # 8020186c <wakeup1>
  p->xstate=status<<8;
    8020228a:	008a1a1b          	slliw	s4,s4,0x8
    8020228e:	0349aa23          	sw	s4,52(s3)
  p->state = ZOMBIE;
    80202292:	4791                	li	a5,4
    80202294:	00f9ac23          	sw	a5,24(s3)
  release(&original_parent->lock);
    80202298:	8526                	mv	a0,s1
    8020229a:	ffffe097          	auipc	ra,0xffffe
    8020229e:	482080e7          	jalr	1154(ra) # 8020071c <release>
  sched();
    802022a2:	00000097          	auipc	ra,0x0
    802022a6:	e58080e7          	jalr	-424(ra) # 802020fa <sched>
  panic("zombie exit");
    802022aa:	00008517          	auipc	a0,0x8
    802022ae:	3e650513          	addi	a0,a0,998 # 8020a690 <digits+0x310>
    802022b2:	ffffe097          	auipc	ra,0xffffe
    802022b6:	e90080e7          	jalr	-368(ra) # 80200142 <panic>

00000000802022ba <yield>:
{
    802022ba:	1101                	addi	sp,sp,-32
    802022bc:	ec06                	sd	ra,24(sp)
    802022be:	e822                	sd	s0,16(sp)
    802022c0:	e426                	sd	s1,8(sp)
    802022c2:	1000                	addi	s0,sp,32
  struct proc *p = myproc();
    802022c4:	fffff097          	auipc	ra,0xfffff
    802022c8:	79c080e7          	jalr	1948(ra) # 80201a60 <myproc>
    802022cc:	84aa                	mv	s1,a0
  acquire(&p->lock);
    802022ce:	ffffe097          	auipc	ra,0xffffe
    802022d2:	3fa080e7          	jalr	1018(ra) # 802006c8 <acquire>
  p->state = RUNNABLE;
    802022d6:	4789                	li	a5,2
    802022d8:	cc9c                	sw	a5,24(s1)
  sched();
    802022da:	00000097          	auipc	ra,0x0
    802022de:	e20080e7          	jalr	-480(ra) # 802020fa <sched>
  release(&p->lock);
    802022e2:	8526                	mv	a0,s1
    802022e4:	ffffe097          	auipc	ra,0xffffe
    802022e8:	438080e7          	jalr	1080(ra) # 8020071c <release>
}
    802022ec:	60e2                	ld	ra,24(sp)
    802022ee:	6442                	ld	s0,16(sp)
    802022f0:	64a2                	ld	s1,8(sp)
    802022f2:	6105                	addi	sp,sp,32
    802022f4:	8082                	ret

00000000802022f6 <sleep>:
{
    802022f6:	7179                	addi	sp,sp,-48
    802022f8:	f406                	sd	ra,40(sp)
    802022fa:	f022                	sd	s0,32(sp)
    802022fc:	ec26                	sd	s1,24(sp)
    802022fe:	e84a                	sd	s2,16(sp)
    80202300:	e44e                	sd	s3,8(sp)
    80202302:	1800                	addi	s0,sp,48
    80202304:	89aa                	mv	s3,a0
    80202306:	892e                	mv	s2,a1
  struct proc *p = myproc();
    80202308:	fffff097          	auipc	ra,0xfffff
    8020230c:	758080e7          	jalr	1880(ra) # 80201a60 <myproc>
    80202310:	84aa                	mv	s1,a0
  if (lk != &p->lock)
    80202312:	05250663          	beq	a0,s2,8020235e <sleep+0x68>
    acquire(&p->lock); // DOC: sleeplock1
    80202316:	ffffe097          	auipc	ra,0xffffe
    8020231a:	3b2080e7          	jalr	946(ra) # 802006c8 <acquire>
    release(lk);
    8020231e:	854a                	mv	a0,s2
    80202320:	ffffe097          	auipc	ra,0xffffe
    80202324:	3fc080e7          	jalr	1020(ra) # 8020071c <release>
  p->chan = chan;
    80202328:	0334b423          	sd	s3,40(s1)
  p->state = SLEEPING;
    8020232c:	4785                	li	a5,1
    8020232e:	cc9c                	sw	a5,24(s1)
  sched();
    80202330:	00000097          	auipc	ra,0x0
    80202334:	dca080e7          	jalr	-566(ra) # 802020fa <sched>
  p->chan = 0;
    80202338:	0204b423          	sd	zero,40(s1)
    release(&p->lock);
    8020233c:	8526                	mv	a0,s1
    8020233e:	ffffe097          	auipc	ra,0xffffe
    80202342:	3de080e7          	jalr	990(ra) # 8020071c <release>
    acquire(lk);
    80202346:	854a                	mv	a0,s2
    80202348:	ffffe097          	auipc	ra,0xffffe
    8020234c:	380080e7          	jalr	896(ra) # 802006c8 <acquire>
}
    80202350:	70a2                	ld	ra,40(sp)
    80202352:	7402                	ld	s0,32(sp)
    80202354:	64e2                	ld	s1,24(sp)
    80202356:	6942                	ld	s2,16(sp)
    80202358:	69a2                	ld	s3,8(sp)
    8020235a:	6145                	addi	sp,sp,48
    8020235c:	8082                	ret
  p->chan = chan;
    8020235e:	03353423          	sd	s3,40(a0)
  p->state = SLEEPING;
    80202362:	4785                	li	a5,1
    80202364:	cd1c                	sw	a5,24(a0)
  sched();
    80202366:	00000097          	auipc	ra,0x0
    8020236a:	d94080e7          	jalr	-620(ra) # 802020fa <sched>
  p->chan = 0;
    8020236e:	0204b423          	sd	zero,40(s1)
  if (lk != &p->lock)
    80202372:	bff9                	j	80202350 <sleep+0x5a>

0000000080202374 <wait>:
{
    80202374:	715d                	addi	sp,sp,-80
    80202376:	e486                	sd	ra,72(sp)
    80202378:	e0a2                	sd	s0,64(sp)
    8020237a:	fc26                	sd	s1,56(sp)
    8020237c:	f84a                	sd	s2,48(sp)
    8020237e:	f44e                	sd	s3,40(sp)
    80202380:	f052                	sd	s4,32(sp)
    80202382:	ec56                	sd	s5,24(sp)
    80202384:	e85a                	sd	s6,16(sp)
    80202386:	e45e                	sd	s7,8(sp)
    80202388:	e062                	sd	s8,0(sp)
    8020238a:	0880                	addi	s0,sp,80
    8020238c:	8baa                	mv	s7,a0
  struct proc *p = myproc();
    8020238e:	fffff097          	auipc	ra,0xfffff
    80202392:	6d2080e7          	jalr	1746(ra) # 80201a60 <myproc>
    80202396:	892a                	mv	s2,a0
  acquire(&p->lock);
    80202398:	8c2a                	mv	s8,a0
    8020239a:	ffffe097          	auipc	ra,0xffffe
    8020239e:	32e080e7          	jalr	814(ra) # 802006c8 <acquire>
        if (np->state == ZOMBIE)
    802023a2:	4a91                	li	s5,4
    for (np = proc; np < &proc[NPROC]; np++)
    802023a4:	6985                	lui	s3,0x1
    802023a6:	80098993          	addi	s3,s3,-2048 # 800 <_entry-0x801ff800>
    802023aa:	0002ea17          	auipc	s4,0x2e
    802023ae:	dd6a0a13          	addi	s4,s4,-554 # 80230180 <bcache>
        havekids = 1;
    802023b2:	4b05                	li	s6,1
    havekids = 0;
    802023b4:	4701                	li	a4,0
    for (np = proc; np < &proc[NPROC]; np++)
    802023b6:	00015497          	auipc	s1,0x15
    802023ba:	dca48493          	addi	s1,s1,-566 # 80217180 <proc>
    802023be:	a8b1                	j	8020241a <wait+0xa6>
          pid = np->pid;
    802023c0:	0384a983          	lw	s3,56(s1)
          if (addr != 0 && copyout2(addr, (char *)&np->xstate, sizeof(np->xstate)) < 0)
    802023c4:	000b8c63          	beqz	s7,802023dc <wait+0x68>
    802023c8:	4611                	li	a2,4
    802023ca:	03448593          	addi	a1,s1,52
    802023ce:	855e                	mv	a0,s7
    802023d0:	fffff097          	auipc	ra,0xfffff
    802023d4:	fac080e7          	jalr	-84(ra) # 8020137c <copyout2>
    802023d8:	02054263          	bltz	a0,802023fc <wait+0x88>
          freeproc(np);
    802023dc:	8526                	mv	a0,s1
    802023de:	00000097          	auipc	ra,0x0
    802023e2:	854080e7          	jalr	-1964(ra) # 80201c32 <freeproc>
          release(&np->lock);
    802023e6:	8526                	mv	a0,s1
    802023e8:	ffffe097          	auipc	ra,0xffffe
    802023ec:	334080e7          	jalr	820(ra) # 8020071c <release>
          release(&p->lock);
    802023f0:	854a                	mv	a0,s2
    802023f2:	ffffe097          	auipc	ra,0xffffe
    802023f6:	32a080e7          	jalr	810(ra) # 8020071c <release>
          return pid;
    802023fa:	a8a1                	j	80202452 <wait+0xde>
            release(&np->lock);
    802023fc:	8526                	mv	a0,s1
    802023fe:	ffffe097          	auipc	ra,0xffffe
    80202402:	31e080e7          	jalr	798(ra) # 8020071c <release>
            release(&p->lock);
    80202406:	854a                	mv	a0,s2
    80202408:	ffffe097          	auipc	ra,0xffffe
    8020240c:	314080e7          	jalr	788(ra) # 8020071c <release>
            return -1;
    80202410:	59fd                	li	s3,-1
    80202412:	a081                	j	80202452 <wait+0xde>
    for (np = proc; np < &proc[NPROC]; np++)
    80202414:	94ce                	add	s1,s1,s3
    80202416:	03448463          	beq	s1,s4,8020243e <wait+0xca>
      if (np->parent == p)
    8020241a:	709c                	ld	a5,32(s1)
    8020241c:	ff279ce3          	bne	a5,s2,80202414 <wait+0xa0>
        acquire(&np->lock);
    80202420:	8526                	mv	a0,s1
    80202422:	ffffe097          	auipc	ra,0xffffe
    80202426:	2a6080e7          	jalr	678(ra) # 802006c8 <acquire>
        if (np->state == ZOMBIE)
    8020242a:	4c9c                	lw	a5,24(s1)
    8020242c:	f9578ae3          	beq	a5,s5,802023c0 <wait+0x4c>
        release(&np->lock);
    80202430:	8526                	mv	a0,s1
    80202432:	ffffe097          	auipc	ra,0xffffe
    80202436:	2ea080e7          	jalr	746(ra) # 8020071c <release>
        havekids = 1;
    8020243a:	875a                	mv	a4,s6
    8020243c:	bfe1                	j	80202414 <wait+0xa0>
    if (!havekids || p->killed)
    8020243e:	c701                	beqz	a4,80202446 <wait+0xd2>
    80202440:	03092783          	lw	a5,48(s2)
    80202444:	c785                	beqz	a5,8020246c <wait+0xf8>
      release(&p->lock);
    80202446:	854a                	mv	a0,s2
    80202448:	ffffe097          	auipc	ra,0xffffe
    8020244c:	2d4080e7          	jalr	724(ra) # 8020071c <release>
      return -1;
    80202450:	59fd                	li	s3,-1
}
    80202452:	854e                	mv	a0,s3
    80202454:	60a6                	ld	ra,72(sp)
    80202456:	6406                	ld	s0,64(sp)
    80202458:	74e2                	ld	s1,56(sp)
    8020245a:	7942                	ld	s2,48(sp)
    8020245c:	79a2                	ld	s3,40(sp)
    8020245e:	7a02                	ld	s4,32(sp)
    80202460:	6ae2                	ld	s5,24(sp)
    80202462:	6b42                	ld	s6,16(sp)
    80202464:	6ba2                	ld	s7,8(sp)
    80202466:	6c02                	ld	s8,0(sp)
    80202468:	6161                	addi	sp,sp,80
    8020246a:	8082                	ret
    sleep(p, &p->lock); // DOC: wait-sleep
    8020246c:	85e2                	mv	a1,s8
    8020246e:	854a                	mv	a0,s2
    80202470:	00000097          	auipc	ra,0x0
    80202474:	e86080e7          	jalr	-378(ra) # 802022f6 <sleep>
    havekids = 0;
    80202478:	bf35                	j	802023b4 <wait+0x40>

000000008020247a <wakeup>:
{
    8020247a:	7139                	addi	sp,sp,-64
    8020247c:	fc06                	sd	ra,56(sp)
    8020247e:	f822                	sd	s0,48(sp)
    80202480:	f426                	sd	s1,40(sp)
    80202482:	f04a                	sd	s2,32(sp)
    80202484:	ec4e                	sd	s3,24(sp)
    80202486:	e852                	sd	s4,16(sp)
    80202488:	e456                	sd	s5,8(sp)
    8020248a:	e05a                	sd	s6,0(sp)
    8020248c:	0080                	addi	s0,sp,64
    8020248e:	8aaa                	mv	s5,a0
  for (p = proc; p < &proc[NPROC]; p++)
    80202490:	00015497          	auipc	s1,0x15
    80202494:	cf048493          	addi	s1,s1,-784 # 80217180 <proc>
    if (p->state == SLEEPING && p->chan == chan)
    80202498:	4a05                	li	s4,1
      p->state = RUNNABLE;
    8020249a:	4b09                	li	s6,2
  for (p = proc; p < &proc[NPROC]; p++)
    8020249c:	6905                	lui	s2,0x1
    8020249e:	80090913          	addi	s2,s2,-2048 # 800 <_entry-0x801ff800>
    802024a2:	0002e997          	auipc	s3,0x2e
    802024a6:	cde98993          	addi	s3,s3,-802 # 80230180 <bcache>
    802024aa:	a819                	j	802024c0 <wakeup+0x46>
      p->state = RUNNABLE;
    802024ac:	0164ac23          	sw	s6,24(s1)
    release(&p->lock);
    802024b0:	8526                	mv	a0,s1
    802024b2:	ffffe097          	auipc	ra,0xffffe
    802024b6:	26a080e7          	jalr	618(ra) # 8020071c <release>
  for (p = proc; p < &proc[NPROC]; p++)
    802024ba:	94ca                	add	s1,s1,s2
    802024bc:	01348e63          	beq	s1,s3,802024d8 <wakeup+0x5e>
    acquire(&p->lock);
    802024c0:	8526                	mv	a0,s1
    802024c2:	ffffe097          	auipc	ra,0xffffe
    802024c6:	206080e7          	jalr	518(ra) # 802006c8 <acquire>
    if (p->state == SLEEPING && p->chan == chan)
    802024ca:	4c9c                	lw	a5,24(s1)
    802024cc:	ff4792e3          	bne	a5,s4,802024b0 <wakeup+0x36>
    802024d0:	749c                	ld	a5,40(s1)
    802024d2:	fd579fe3          	bne	a5,s5,802024b0 <wakeup+0x36>
    802024d6:	bfd9                	j	802024ac <wakeup+0x32>
}
    802024d8:	70e2                	ld	ra,56(sp)
    802024da:	7442                	ld	s0,48(sp)
    802024dc:	74a2                	ld	s1,40(sp)
    802024de:	7902                	ld	s2,32(sp)
    802024e0:	69e2                	ld	s3,24(sp)
    802024e2:	6a42                	ld	s4,16(sp)
    802024e4:	6aa2                	ld	s5,8(sp)
    802024e6:	6b02                	ld	s6,0(sp)
    802024e8:	6121                	addi	sp,sp,64
    802024ea:	8082                	ret

00000000802024ec <kill>:

// Kill the process with the given pid.
// The victim won't exit until it tries to return
// to user space (see usertrap() in trap.c).
int kill(int pid)
{
    802024ec:	7179                	addi	sp,sp,-48
    802024ee:	f406                	sd	ra,40(sp)
    802024f0:	f022                	sd	s0,32(sp)
    802024f2:	ec26                	sd	s1,24(sp)
    802024f4:	e84a                	sd	s2,16(sp)
    802024f6:	e44e                	sd	s3,8(sp)
    802024f8:	e052                	sd	s4,0(sp)
    802024fa:	1800                	addi	s0,sp,48
    802024fc:	892a                	mv	s2,a0
  struct proc *p;

  for (p = proc; p < &proc[NPROC]; p++)
    802024fe:	00015497          	auipc	s1,0x15
    80202502:	c8248493          	addi	s1,s1,-894 # 80217180 <proc>
    80202506:	6985                	lui	s3,0x1
    80202508:	80098993          	addi	s3,s3,-2048 # 800 <_entry-0x801ff800>
    8020250c:	0002ea17          	auipc	s4,0x2e
    80202510:	c74a0a13          	addi	s4,s4,-908 # 80230180 <bcache>
  {
    acquire(&p->lock);
    80202514:	8526                	mv	a0,s1
    80202516:	ffffe097          	auipc	ra,0xffffe
    8020251a:	1b2080e7          	jalr	434(ra) # 802006c8 <acquire>
    if (p->pid == pid)
    8020251e:	5c9c                	lw	a5,56(s1)
    80202520:	01278c63          	beq	a5,s2,80202538 <kill+0x4c>
        p->state = RUNNABLE;
      }
      release(&p->lock);
      return 0;
    }
    release(&p->lock);
    80202524:	8526                	mv	a0,s1
    80202526:	ffffe097          	auipc	ra,0xffffe
    8020252a:	1f6080e7          	jalr	502(ra) # 8020071c <release>
  for (p = proc; p < &proc[NPROC]; p++)
    8020252e:	94ce                	add	s1,s1,s3
    80202530:	ff4492e3          	bne	s1,s4,80202514 <kill+0x28>
  }
  return -1;
    80202534:	557d                	li	a0,-1
    80202536:	a829                	j	80202550 <kill+0x64>
      p->killed = 1;
    80202538:	4785                	li	a5,1
    8020253a:	d89c                	sw	a5,48(s1)
      if (p->state == SLEEPING)
    8020253c:	4c98                	lw	a4,24(s1)
    8020253e:	4785                	li	a5,1
    80202540:	02f70063          	beq	a4,a5,80202560 <kill+0x74>
      release(&p->lock);
    80202544:	8526                	mv	a0,s1
    80202546:	ffffe097          	auipc	ra,0xffffe
    8020254a:	1d6080e7          	jalr	470(ra) # 8020071c <release>
      return 0;
    8020254e:	4501                	li	a0,0
}
    80202550:	70a2                	ld	ra,40(sp)
    80202552:	7402                	ld	s0,32(sp)
    80202554:	64e2                	ld	s1,24(sp)
    80202556:	6942                	ld	s2,16(sp)
    80202558:	69a2                	ld	s3,8(sp)
    8020255a:	6a02                	ld	s4,0(sp)
    8020255c:	6145                	addi	sp,sp,48
    8020255e:	8082                	ret
        p->state = RUNNABLE;
    80202560:	4789                	li	a5,2
    80202562:	cc9c                	sw	a5,24(s1)
    80202564:	b7c5                	j	80202544 <kill+0x58>

0000000080202566 <either_copyout>:

// Copy to either a user address, or kernel address,
// depending on usr_dst.
// Returns 0 on success, -1 on error.
int either_copyout(int user_dst, uint64 dst, void *src, uint64 len)
{
    80202566:	7179                	addi	sp,sp,-48
    80202568:	f406                	sd	ra,40(sp)
    8020256a:	f022                	sd	s0,32(sp)
    8020256c:	ec26                	sd	s1,24(sp)
    8020256e:	e84a                	sd	s2,16(sp)
    80202570:	e44e                	sd	s3,8(sp)
    80202572:	e052                	sd	s4,0(sp)
    80202574:	1800                	addi	s0,sp,48
    80202576:	84aa                	mv	s1,a0
    80202578:	892e                	mv	s2,a1
    8020257a:	89b2                	mv	s3,a2
    8020257c:	8a36                	mv	s4,a3
  struct proc *p = myproc();
    8020257e:	fffff097          	auipc	ra,0xfffff
    80202582:	4e2080e7          	jalr	1250(ra) # 80201a60 <myproc>
  if (user_dst)
    80202586:	c08d                	beqz	s1,802025a8 <either_copyout+0x42>
  {
    return copyout(p->pagetable, dst, src, len);
    80202588:	86d2                	mv	a3,s4
    8020258a:	864e                	mv	a2,s3
    8020258c:	85ca                	mv	a1,s2
    8020258e:	6928                	ld	a0,80(a0)
    80202590:	fffff097          	auipc	ra,0xfffff
    80202594:	d60080e7          	jalr	-672(ra) # 802012f0 <copyout>
  else
  {
    memmove((char *)dst, src, len);
    return 0;
  }
}
    80202598:	70a2                	ld	ra,40(sp)
    8020259a:	7402                	ld	s0,32(sp)
    8020259c:	64e2                	ld	s1,24(sp)
    8020259e:	6942                	ld	s2,16(sp)
    802025a0:	69a2                	ld	s3,8(sp)
    802025a2:	6a02                	ld	s4,0(sp)
    802025a4:	6145                	addi	sp,sp,48
    802025a6:	8082                	ret
    memmove((char *)dst, src, len);
    802025a8:	000a061b          	sext.w	a2,s4
    802025ac:	85ce                	mv	a1,s3
    802025ae:	854a                	mv	a0,s2
    802025b0:	ffffe097          	auipc	ra,0xffffe
    802025b4:	214080e7          	jalr	532(ra) # 802007c4 <memmove>
    return 0;
    802025b8:	8526                	mv	a0,s1
    802025ba:	bff9                	j	80202598 <either_copyout+0x32>

00000000802025bc <either_copyin>:

// Copy from either a user address, or kernel address,
// depending on usr_src.
// Returns 0 on success, -1 on error.
int either_copyin(void *dst, int user_src, uint64 src, uint64 len)
{
    802025bc:	7179                	addi	sp,sp,-48
    802025be:	f406                	sd	ra,40(sp)
    802025c0:	f022                	sd	s0,32(sp)
    802025c2:	ec26                	sd	s1,24(sp)
    802025c4:	e84a                	sd	s2,16(sp)
    802025c6:	e44e                	sd	s3,8(sp)
    802025c8:	e052                	sd	s4,0(sp)
    802025ca:	1800                	addi	s0,sp,48
    802025cc:	892a                	mv	s2,a0
    802025ce:	84ae                	mv	s1,a1
    802025d0:	89b2                	mv	s3,a2
    802025d2:	8a36                	mv	s4,a3
  struct proc *p = myproc();
    802025d4:	fffff097          	auipc	ra,0xfffff
    802025d8:	48c080e7          	jalr	1164(ra) # 80201a60 <myproc>
  if (user_src)
    802025dc:	c08d                	beqz	s1,802025fe <either_copyin+0x42>
  {
    return copyin(p->pagetable, dst, src, len);
    802025de:	86d2                	mv	a3,s4
    802025e0:	864e                	mv	a2,s3
    802025e2:	85ca                	mv	a1,s2
    802025e4:	6928                	ld	a0,80(a0)
    802025e6:	fffff097          	auipc	ra,0xfffff
    802025ea:	de8080e7          	jalr	-536(ra) # 802013ce <copyin>
  else
  {
    memmove(dst, (char *)src, len);
    return 0;
  }
}
    802025ee:	70a2                	ld	ra,40(sp)
    802025f0:	7402                	ld	s0,32(sp)
    802025f2:	64e2                	ld	s1,24(sp)
    802025f4:	6942                	ld	s2,16(sp)
    802025f6:	69a2                	ld	s3,8(sp)
    802025f8:	6a02                	ld	s4,0(sp)
    802025fa:	6145                	addi	sp,sp,48
    802025fc:	8082                	ret
    memmove(dst, (char *)src, len);
    802025fe:	000a061b          	sext.w	a2,s4
    80202602:	85ce                	mv	a1,s3
    80202604:	854a                	mv	a0,s2
    80202606:	ffffe097          	auipc	ra,0xffffe
    8020260a:	1be080e7          	jalr	446(ra) # 802007c4 <memmove>
    return 0;
    8020260e:	8526                	mv	a0,s1
    80202610:	bff9                	j	802025ee <either_copyin+0x32>

0000000080202612 <procdump>:

// Print a process listing to console.  For debugging.
// Runs when user types ^P on console.
// No lock to avoid wedging a stuck machine further.
void procdump(void)
{
    80202612:	715d                	addi	sp,sp,-80
    80202614:	e486                	sd	ra,72(sp)
    80202616:	e0a2                	sd	s0,64(sp)
    80202618:	fc26                	sd	s1,56(sp)
    8020261a:	f84a                	sd	s2,48(sp)
    8020261c:	f44e                	sd	s3,40(sp)
    8020261e:	f052                	sd	s4,32(sp)
    80202620:	ec56                	sd	s5,24(sp)
    80202622:	e85a                	sd	s6,16(sp)
    80202624:	e45e                	sd	s7,8(sp)
    80202626:	e062                	sd	s8,0(sp)
    80202628:	0880                	addi	s0,sp,80
      [RUNNING] "run   ",
      [ZOMBIE] "zombie"};
  struct proc *p;
  char *state;

  printf("\nPID\tSTATE\tNAME\tMEM\n");
    8020262a:	00008517          	auipc	a0,0x8
    8020262e:	07e50513          	addi	a0,a0,126 # 8020a6a8 <digits+0x328>
    80202632:	ffffe097          	auipc	ra,0xffffe
    80202636:	b5a080e7          	jalr	-1190(ra) # 8020018c <printf>
  for (p = proc; p < &proc[NPROC]; p++)
    8020263a:	00015497          	auipc	s1,0x15
    8020263e:	02648493          	addi	s1,s1,38 # 80217660 <proc+0x4e0>
    80202642:	0002e997          	auipc	s3,0x2e
    80202646:	01e98993          	addi	s3,s3,30 # 80230660 <bcache+0x4e0>
  {
    if (p->state == UNUSED)
      continue;
    if (p->state >= 0 && p->state < NELEM(states) && states[p->state])
    8020264a:	4b91                	li	s7,4
      state = states[p->state];
    else
      state = "???";
    8020264c:	00008a17          	auipc	s4,0x8
    80202650:	054a0a13          	addi	s4,s4,84 # 8020a6a0 <digits+0x320>
    printf("%d\t%s\t%s\t%d", p->pid, state, p->name, p->sz);
    80202654:	00008b17          	auipc	s6,0x8
    80202658:	06cb0b13          	addi	s6,s6,108 # 8020a6c0 <digits+0x340>
    printf("\n");
    8020265c:	00008a97          	auipc	s5,0x8
    80202660:	a7ca8a93          	addi	s5,s5,-1412 # 8020a0d8 <etext+0xd8>
    if (p->state >= 0 && p->state < NELEM(states) && states[p->state])
    80202664:	0000ac17          	auipc	s8,0xa
    80202668:	9dcc0c13          	addi	s8,s8,-1572 # 8020c040 <states.1758>
    8020266c:	6905                	lui	s2,0x1
    8020266e:	80090913          	addi	s2,s2,-2048 # 800 <_entry-0x801ff800>
    80202672:	a015                	j	80202696 <procdump+0x84>
    printf("%d\t%s\t%s\t%d", p->pid, state, p->name, p->sz);
    80202674:	b686b703          	ld	a4,-1176(a3)
    80202678:	b586a583          	lw	a1,-1192(a3)
    8020267c:	855a                	mv	a0,s6
    8020267e:	ffffe097          	auipc	ra,0xffffe
    80202682:	b0e080e7          	jalr	-1266(ra) # 8020018c <printf>
    printf("\n");
    80202686:	8556                	mv	a0,s5
    80202688:	ffffe097          	auipc	ra,0xffffe
    8020268c:	b04080e7          	jalr	-1276(ra) # 8020018c <printf>
  for (p = proc; p < &proc[NPROC]; p++)
    80202690:	94ca                	add	s1,s1,s2
    80202692:	03348163          	beq	s1,s3,802026b4 <procdump+0xa2>
    if (p->state == UNUSED)
    80202696:	86a6                	mv	a3,s1
    80202698:	b384a783          	lw	a5,-1224(s1)
    8020269c:	dbf5                	beqz	a5,80202690 <procdump+0x7e>
      state = "???";
    8020269e:	8652                	mv	a2,s4
    if (p->state >= 0 && p->state < NELEM(states) && states[p->state])
    802026a0:	fcfbeae3          	bltu	s7,a5,80202674 <procdump+0x62>
    802026a4:	1782                	slli	a5,a5,0x20
    802026a6:	9381                	srli	a5,a5,0x20
    802026a8:	078e                	slli	a5,a5,0x3
    802026aa:	97e2                	add	a5,a5,s8
    802026ac:	6390                	ld	a2,0(a5)
    802026ae:	f279                	bnez	a2,80202674 <procdump+0x62>
      state = "???";
    802026b0:	8652                	mv	a2,s4
    802026b2:	b7c9                	j	80202674 <procdump+0x62>
  }
}
    802026b4:	60a6                	ld	ra,72(sp)
    802026b6:	6406                	ld	s0,64(sp)
    802026b8:	74e2                	ld	s1,56(sp)
    802026ba:	7942                	ld	s2,48(sp)
    802026bc:	79a2                	ld	s3,40(sp)
    802026be:	7a02                	ld	s4,32(sp)
    802026c0:	6ae2                	ld	s5,24(sp)
    802026c2:	6b42                	ld	s6,16(sp)
    802026c4:	6ba2                	ld	s7,8(sp)
    802026c6:	6c02                	ld	s8,0(sp)
    802026c8:	6161                	addi	sp,sp,80
    802026ca:	8082                	ret

00000000802026cc <procnum>:

uint64
procnum(void)
{
    802026cc:	1141                	addi	sp,sp,-16
    802026ce:	e422                	sd	s0,8(sp)
    802026d0:	0800                	addi	s0,sp,16
  int num = 0;
  struct proc *p;

  for (p = proc; p < &proc[NPROC]; p++)
    802026d2:	00015797          	auipc	a5,0x15
    802026d6:	aae78793          	addi	a5,a5,-1362 # 80217180 <proc>
  int num = 0;
    802026da:	4501                	li	a0,0
  for (p = proc; p < &proc[NPROC]; p++)
    802026dc:	6685                	lui	a3,0x1
    802026de:	80068693          	addi	a3,a3,-2048 # 800 <_entry-0x801ff800>
    802026e2:	0002e617          	auipc	a2,0x2e
    802026e6:	a9e60613          	addi	a2,a2,-1378 # 80230180 <bcache>
    802026ea:	a021                	j	802026f2 <procnum+0x26>
    802026ec:	97b6                	add	a5,a5,a3
    802026ee:	00c78663          	beq	a5,a2,802026fa <procnum+0x2e>
  {
    if (p->state != UNUSED)
    802026f2:	4f98                	lw	a4,24(a5)
    802026f4:	df65                	beqz	a4,802026ec <procnum+0x20>
    {
      num++;
    802026f6:	2505                	addiw	a0,a0,1
    802026f8:	bfd5                	j	802026ec <procnum+0x20>
    }
  }

  return num;
}
    802026fa:	6422                	ld	s0,8(sp)
    802026fc:	0141                	addi	sp,sp,16
    802026fe:	8082                	ret

0000000080202700 <clone>:


// added by lmq for SYS_clone
int clone(int flags, uint64 stack, int ptid, int tls, int ctid)
{
    80202700:	7179                	addi	sp,sp,-48
    80202702:	f406                	sd	ra,40(sp)
    80202704:	f022                	sd	s0,32(sp)
    80202706:	ec26                	sd	s1,24(sp)
    80202708:	e84a                	sd	s2,16(sp)
    8020270a:	e44e                	sd	s3,8(sp)
    8020270c:	e052                	sd	s4,0(sp)
    8020270e:	1800                	addi	s0,sp,48
    80202710:	84ae                	mv	s1,a1
  int i, pid;
  struct proc *np;
  struct proc *p = myproc();
    80202712:	fffff097          	auipc	ra,0xfffff
    80202716:	34e080e7          	jalr	846(ra) # 80201a60 <myproc>
    8020271a:	892a                	mv	s2,a0

  // Allocate process.
  if ((np = allocproc()) == NULL)
    8020271c:	fffff097          	auipc	ra,0xfffff
    80202720:	580080e7          	jalr	1408(ra) # 80201c9c <allocproc>
    80202724:	cd65                	beqz	a0,8020281c <clone+0x11c>
    80202726:	8a2a                	mv	s4,a0
  {
    return -1;
  }

  // Copy user memory from parent to child.
  if (uvmcopy(p->pagetable, np->pagetable, np->kpagetable, p->sz) < 0)
    80202728:	04893683          	ld	a3,72(s2)
    8020272c:	6d30                	ld	a2,88(a0)
    8020272e:	692c                	ld	a1,80(a0)
    80202730:	05093503          	ld	a0,80(s2)
    80202734:	fffff097          	auipc	ra,0xfffff
    80202738:	a7c080e7          	jalr	-1412(ra) # 802011b0 <uvmcopy>
    8020273c:	06054163          	bltz	a0,8020279e <clone+0x9e>
  {
    freeproc(np);
    release(&np->lock);
    return -1;
  }
  np->sz = p->sz;
    80202740:	04893783          	ld	a5,72(s2)
    80202744:	04fa3423          	sd	a5,72(s4)

  np->parent = p;
    80202748:	032a3023          	sd	s2,32(s4)

  // copy tracing mask from parent.
  np->tmask = p->tmask;
    8020274c:	4f092783          	lw	a5,1264(s2)
    80202750:	4efa2823          	sw	a5,1264(s4)

  // copy saved user registers.
  *(np->trapframe) = *(p->trapframe);
    80202754:	06093683          	ld	a3,96(s2)
    80202758:	87b6                	mv	a5,a3
    8020275a:	060a3703          	ld	a4,96(s4)
    8020275e:	12068693          	addi	a3,a3,288
    80202762:	0007b883          	ld	a7,0(a5)
    80202766:	0087b803          	ld	a6,8(a5)
    8020276a:	6b88                	ld	a0,16(a5)
    8020276c:	6f90                	ld	a2,24(a5)
    8020276e:	01173023          	sd	a7,0(a4)
    80202772:	01073423          	sd	a6,8(a4)
    80202776:	eb08                	sd	a0,16(a4)
    80202778:	ef10                	sd	a2,24(a4)
    8020277a:	02078793          	addi	a5,a5,32
    8020277e:	02070713          	addi	a4,a4,32
    80202782:	fed790e3          	bne	a5,a3,80202762 <clone+0x62>

  // Cause fork to return 0 in the child.
  np->trapframe->a0 = 0;
    80202786:	060a3783          	ld	a5,96(s4)
    8020278a:	0607b823          	sd	zero,112(a5)
  // printf("child stack is %d\n", stack);
  np->trapframe->sp=stack;
    8020278e:	060a3783          	ld	a5,96(s4)
    80202792:	fb84                	sd	s1,48(a5)
    80202794:	0d800493          	li	s1,216
  // increment reference counts on open file descriptors.
  for (i = 0; i < NOFILE; i++)
    80202798:	4d800993          	li	s3,1240
    8020279c:	a03d                	j	802027ca <clone+0xca>
    freeproc(np);
    8020279e:	8552                	mv	a0,s4
    802027a0:	fffff097          	auipc	ra,0xfffff
    802027a4:	492080e7          	jalr	1170(ra) # 80201c32 <freeproc>
    release(&np->lock);
    802027a8:	8552                	mv	a0,s4
    802027aa:	ffffe097          	auipc	ra,0xffffe
    802027ae:	f72080e7          	jalr	-142(ra) # 8020071c <release>
    return -1;
    802027b2:	54fd                	li	s1,-1
    802027b4:	a899                	j	8020280a <clone+0x10a>
    if (p->ofile[i])
      np->ofile[i] = filedup(p->ofile[i]);
    802027b6:	00002097          	auipc	ra,0x2
    802027ba:	818080e7          	jalr	-2024(ra) # 80203fce <filedup>
    802027be:	009a07b3          	add	a5,s4,s1
    802027c2:	e388                	sd	a0,0(a5)
  for (i = 0; i < NOFILE; i++)
    802027c4:	04a1                	addi	s1,s1,8
    802027c6:	01348763          	beq	s1,s3,802027d4 <clone+0xd4>
    if (p->ofile[i])
    802027ca:	009907b3          	add	a5,s2,s1
    802027ce:	6388                	ld	a0,0(a5)
    802027d0:	f17d                	bnez	a0,802027b6 <clone+0xb6>
    802027d2:	bfcd                	j	802027c4 <clone+0xc4>
  np->cwd = edup(p->cwd);
    802027d4:	4d893503          	ld	a0,1240(s2)
    802027d8:	00005097          	auipc	ra,0x5
    802027dc:	bfc080e7          	jalr	-1028(ra) # 802073d4 <edup>
    802027e0:	4caa3c23          	sd	a0,1240(s4)

  safestrcpy(np->name, p->name, sizeof(p->name));
    802027e4:	4641                	li	a2,16
    802027e6:	4e090593          	addi	a1,s2,1248
    802027ea:	4e0a0513          	addi	a0,s4,1248
    802027ee:	ffffe097          	auipc	ra,0xffffe
    802027f2:	0cc080e7          	jalr	204(ra) # 802008ba <safestrcpy>

  pid = np->pid;
    802027f6:	038a2483          	lw	s1,56(s4)

  np->state = RUNNABLE;
    802027fa:	4789                	li	a5,2
    802027fc:	00fa2c23          	sw	a5,24(s4)

  release(&np->lock);
    80202800:	8552                	mv	a0,s4
    80202802:	ffffe097          	auipc	ra,0xffffe
    80202806:	f1a080e7          	jalr	-230(ra) # 8020071c <release>

  return pid;
}
    8020280a:	8526                	mv	a0,s1
    8020280c:	70a2                	ld	ra,40(sp)
    8020280e:	7402                	ld	s0,32(sp)
    80202810:	64e2                	ld	s1,24(sp)
    80202812:	6942                	ld	s2,16(sp)
    80202814:	69a2                	ld	s3,8(sp)
    80202816:	6a02                	ld	s4,0(sp)
    80202818:	6145                	addi	sp,sp,48
    8020281a:	8082                	ret
    return -1;
    8020281c:	54fd                	li	s1,-1
    8020281e:	b7f5                	j	8020280a <clone+0x10a>

0000000080202820 <waitpid>:
 * @addr:address to store return status of child process
 * @options:default 0
 * @return:pid of child process;-1 means failure
 */
int waitpid(int cpid, uint64 addr, int options)
{
    80202820:	711d                	addi	sp,sp,-96
    80202822:	ec86                	sd	ra,88(sp)
    80202824:	e8a2                	sd	s0,80(sp)
    80202826:	e4a6                	sd	s1,72(sp)
    80202828:	e0ca                	sd	s2,64(sp)
    8020282a:	fc4e                	sd	s3,56(sp)
    8020282c:	f852                	sd	s4,48(sp)
    8020282e:	f456                	sd	s5,40(sp)
    80202830:	f05a                	sd	s6,32(sp)
    80202832:	ec5e                	sd	s7,24(sp)
    80202834:	e862                	sd	s8,16(sp)
    80202836:	e466                	sd	s9,8(sp)
    80202838:	1080                	addi	s0,sp,96
    8020283a:	8c2e                	mv	s8,a1
  if (cpid == -1) // wait for any child
    8020283c:	57fd                	li	a5,-1
    8020283e:	02f51663          	bne	a0,a5,8020286a <waitpid+0x4a>
  {
    return wait(addr);
    80202842:	852e                	mv	a0,a1
    80202844:	00000097          	auipc	ra,0x0
    80202848:	b30080e7          	jalr	-1232(ra) # 80202374 <wait>
    8020284c:	89aa                	mv	s3,a0

    // Wait for a child to exit.
    sleep(p, &p->lock); // DOC: wait-sleep

  }
}
    8020284e:	854e                	mv	a0,s3
    80202850:	60e6                	ld	ra,88(sp)
    80202852:	6446                	ld	s0,80(sp)
    80202854:	64a6                	ld	s1,72(sp)
    80202856:	6906                	ld	s2,64(sp)
    80202858:	79e2                	ld	s3,56(sp)
    8020285a:	7a42                	ld	s4,48(sp)
    8020285c:	7aa2                	ld	s5,40(sp)
    8020285e:	7b02                	ld	s6,32(sp)
    80202860:	6be2                	ld	s7,24(sp)
    80202862:	6c42                	ld	s8,16(sp)
    80202864:	6ca2                	ld	s9,8(sp)
    80202866:	6125                	addi	sp,sp,96
    80202868:	8082                	ret
    8020286a:	8aaa                	mv	s5,a0
  struct proc *p = myproc();
    8020286c:	fffff097          	auipc	ra,0xfffff
    80202870:	1f4080e7          	jalr	500(ra) # 80201a60 <myproc>
    80202874:	892a                	mv	s2,a0
  acquire(&p->lock);
    80202876:	8caa                	mv	s9,a0
    80202878:	ffffe097          	auipc	ra,0xffffe
    8020287c:	e50080e7          	jalr	-432(ra) # 802006c8 <acquire>
        if (pp->state == ZOMBIE)
    80202880:	4b11                	li	s6,4
    for (pp = proc; pp < &proc[NPROC]; pp++)
    80202882:	6985                	lui	s3,0x1
    80202884:	80098993          	addi	s3,s3,-2048 # 800 <_entry-0x801ff800>
    80202888:	0002ea17          	auipc	s4,0x2e
    8020288c:	8f8a0a13          	addi	s4,s4,-1800 # 80230180 <bcache>
        havekids = 1;
    80202890:	4b85                	li	s7,1
    80202892:	a879                	j	80202930 <waitpid+0x110>
          pid = pp->pid;
    80202894:	0384a983          	lw	s3,56(s1)
          if (addr != 0 && copyout(p->pagetable, addr, (char *)&pp->xstate,
    80202898:	000c0e63          	beqz	s8,802028b4 <waitpid+0x94>
    8020289c:	4691                	li	a3,4
    8020289e:	03448613          	addi	a2,s1,52
    802028a2:	85e2                	mv	a1,s8
    802028a4:	05093503          	ld	a0,80(s2)
    802028a8:	fffff097          	auipc	ra,0xfffff
    802028ac:	a48080e7          	jalr	-1464(ra) # 802012f0 <copyout>
    802028b0:	02054263          	bltz	a0,802028d4 <waitpid+0xb4>
          freeproc(pp);
    802028b4:	8526                	mv	a0,s1
    802028b6:	fffff097          	auipc	ra,0xfffff
    802028ba:	37c080e7          	jalr	892(ra) # 80201c32 <freeproc>
          release(&pp->lock);
    802028be:	8526                	mv	a0,s1
    802028c0:	ffffe097          	auipc	ra,0xffffe
    802028c4:	e5c080e7          	jalr	-420(ra) # 8020071c <release>
          release(&p->lock);
    802028c8:	854a                	mv	a0,s2
    802028ca:	ffffe097          	auipc	ra,0xffffe
    802028ce:	e52080e7          	jalr	-430(ra) # 8020071c <release>
          return pid;
    802028d2:	bfb5                	j	8020284e <waitpid+0x2e>
            release(&pp->lock);
    802028d4:	8526                	mv	a0,s1
    802028d6:	ffffe097          	auipc	ra,0xffffe
    802028da:	e46080e7          	jalr	-442(ra) # 8020071c <release>
            release(&p->lock);
    802028de:	854a                	mv	a0,s2
    802028e0:	ffffe097          	auipc	ra,0xffffe
    802028e4:	e3c080e7          	jalr	-452(ra) # 8020071c <release>
            return -1;
    802028e8:	59fd                	li	s3,-1
    802028ea:	b795                	j	8020284e <waitpid+0x2e>
    for (pp = proc; pp < &proc[NPROC]; pp++)
    802028ec:	94ce                	add	s1,s1,s3
    802028ee:	03448763          	beq	s1,s4,8020291c <waitpid+0xfc>
      if (pp->parent == p && pp->pid == cpid)
    802028f2:	709c                	ld	a5,32(s1)
    802028f4:	ff279ce3          	bne	a5,s2,802028ec <waitpid+0xcc>
    802028f8:	5c9c                	lw	a5,56(s1)
    802028fa:	ff5799e3          	bne	a5,s5,802028ec <waitpid+0xcc>
        acquire(&pp->lock);
    802028fe:	8526                	mv	a0,s1
    80202900:	ffffe097          	auipc	ra,0xffffe
    80202904:	dc8080e7          	jalr	-568(ra) # 802006c8 <acquire>
        if (pp->state == ZOMBIE)
    80202908:	4c9c                	lw	a5,24(s1)
    8020290a:	f96785e3          	beq	a5,s6,80202894 <waitpid+0x74>
        release(&pp->lock);
    8020290e:	8526                	mv	a0,s1
    80202910:	ffffe097          	auipc	ra,0xffffe
    80202914:	e0c080e7          	jalr	-500(ra) # 8020071c <release>
        havekids = 1;
    80202918:	875e                	mv	a4,s7
    8020291a:	bfc9                	j	802028ec <waitpid+0xcc>
    if (!havekids || p->killed)
    8020291c:	c305                	beqz	a4,8020293c <waitpid+0x11c>
    8020291e:	03092783          	lw	a5,48(s2)
    80202922:	ef89                	bnez	a5,8020293c <waitpid+0x11c>
    sleep(p, &p->lock); // DOC: wait-sleep
    80202924:	85e6                	mv	a1,s9
    80202926:	854a                	mv	a0,s2
    80202928:	00000097          	auipc	ra,0x0
    8020292c:	9ce080e7          	jalr	-1586(ra) # 802022f6 <sleep>
    havekids = 0;
    80202930:	4701                	li	a4,0
    for (pp = proc; pp < &proc[NPROC]; pp++)
    80202932:	00015497          	auipc	s1,0x15
    80202936:	84e48493          	addi	s1,s1,-1970 # 80217180 <proc>
    8020293a:	bf65                	j	802028f2 <waitpid+0xd2>
      release(&p->lock);
    8020293c:	854a                	mv	a0,s2
    8020293e:	ffffe097          	auipc	ra,0xffffe
    80202942:	dde080e7          	jalr	-546(ra) # 8020071c <release>
      panic("current process do not have child process [cpid]");
    80202946:	00008517          	auipc	a0,0x8
    8020294a:	d8a50513          	addi	a0,a0,-630 # 8020a6d0 <digits+0x350>
    8020294e:	ffffd097          	auipc	ra,0xffffd
    80202952:	7f4080e7          	jalr	2036(ra) # 80200142 <panic>

0000000080202956 <swtch>:
    80202956:	00153023          	sd	ra,0(a0)
    8020295a:	00253423          	sd	sp,8(a0)
    8020295e:	e900                	sd	s0,16(a0)
    80202960:	ed04                	sd	s1,24(a0)
    80202962:	03253023          	sd	s2,32(a0)
    80202966:	03353423          	sd	s3,40(a0)
    8020296a:	03453823          	sd	s4,48(a0)
    8020296e:	03553c23          	sd	s5,56(a0)
    80202972:	05653023          	sd	s6,64(a0)
    80202976:	05753423          	sd	s7,72(a0)
    8020297a:	05853823          	sd	s8,80(a0)
    8020297e:	05953c23          	sd	s9,88(a0)
    80202982:	07a53023          	sd	s10,96(a0)
    80202986:	07b53423          	sd	s11,104(a0)
    8020298a:	0005b083          	ld	ra,0(a1)
    8020298e:	0085b103          	ld	sp,8(a1)
    80202992:	6980                	ld	s0,16(a1)
    80202994:	6d84                	ld	s1,24(a1)
    80202996:	0205b903          	ld	s2,32(a1)
    8020299a:	0285b983          	ld	s3,40(a1)
    8020299e:	0305ba03          	ld	s4,48(a1)
    802029a2:	0385ba83          	ld	s5,56(a1)
    802029a6:	0405bb03          	ld	s6,64(a1)
    802029aa:	0485bb83          	ld	s7,72(a1)
    802029ae:	0505bc03          	ld	s8,80(a1)
    802029b2:	0585bc83          	ld	s9,88(a1)
    802029b6:	0605bd03          	ld	s10,96(a1)
    802029ba:	0685bd83          	ld	s11,104(a1)
    802029be:	8082                	ret

00000000802029c0 <trapinithart>:
// }

// set up to take exceptions and traps while in the kernel.
void
trapinithart(void)
{
    802029c0:	1141                	addi	sp,sp,-16
    802029c2:	e406                	sd	ra,8(sp)
    802029c4:	e022                	sd	s0,0(sp)
    802029c6:	0800                	addi	s0,sp,16
  asm volatile("csrw stvec, %0" : : "r" (x));
    802029c8:	0000b797          	auipc	a5,0xb
    802029cc:	7087b783          	ld	a5,1800(a5) # 8020e0d0 <_GLOBAL_OFFSET_TABLE_+0x20>
    802029d0:	10579073          	csrw	stvec,a5
  asm volatile("csrr %0, sstatus" : "=r" (x) );
    802029d4:	100027f3          	csrr	a5,sstatus
  w_stvec((uint64)kernelvec);
  w_sstatus(r_sstatus() | SSTATUS_SIE);
    802029d8:	0027e793          	ori	a5,a5,2
  asm volatile("csrw sstatus, %0" : : "r" (x));
    802029dc:	10079073          	csrw	sstatus,a5
  asm volatile("csrr %0, sie" : "=r" (x) );
    802029e0:	104027f3          	csrr	a5,sie
  // enable supervisor-mode timer interrupts.
  w_sie(r_sie() | SIE_SEIE | SIE_SSIE | SIE_STIE);
    802029e4:	2227e793          	ori	a5,a5,546
  asm volatile("csrw sie, %0" : : "r" (x));
    802029e8:	10479073          	csrw	sie,a5
  set_next_timeout();
    802029ec:	00004097          	auipc	ra,0x4
    802029f0:	a3a080e7          	jalr	-1478(ra) # 80206426 <set_next_timeout>
  #ifdef DEBUG
  printf("trapinithart\n");
  #endif
}
    802029f4:	60a2                	ld	ra,8(sp)
    802029f6:	6402                	ld	s0,0(sp)
    802029f8:	0141                	addi	sp,sp,16
    802029fa:	8082                	ret

00000000802029fc <usertrapret>:
//
// return to user space
//
void
usertrapret(void)
{
    802029fc:	1141                	addi	sp,sp,-16
    802029fe:	e406                	sd	ra,8(sp)
    80202a00:	e022                	sd	s0,0(sp)
    80202a02:	0800                	addi	s0,sp,16
  struct proc *p = myproc();
    80202a04:	fffff097          	auipc	ra,0xfffff
    80202a08:	05c080e7          	jalr	92(ra) # 80201a60 <myproc>
  asm volatile("csrr %0, sstatus" : "=r" (x) );
    80202a0c:	100027f3          	csrr	a5,sstatus
  w_sstatus(r_sstatus() & ~SSTATUS_SIE);
    80202a10:	9bf5                	andi	a5,a5,-3
  asm volatile("csrw sstatus, %0" : : "r" (x));
    80202a12:	10079073          	csrw	sstatus,a5
  // kerneltrap() to usertrap(), so turn off interrupts until
  // we're back in user space, where usertrap() is correct.
  intr_off();

  // send syscalls, interrupts, and exceptions to trampoline.S
  w_stvec(TRAMPOLINE + (uservec - trampoline));
    80202a16:	0000b617          	auipc	a2,0xb
    80202a1a:	6a263603          	ld	a2,1698(a2) # 8020e0b8 <_GLOBAL_OFFSET_TABLE_+0x8>
    80202a1e:	0000b697          	auipc	a3,0xb
    80202a22:	6d26b683          	ld	a3,1746(a3) # 8020e0f0 <_GLOBAL_OFFSET_TABLE_+0x40>
    80202a26:	8e91                	sub	a3,a3,a2
    80202a28:	040007b7          	lui	a5,0x4000
    80202a2c:	17fd                	addi	a5,a5,-1
    80202a2e:	07b2                	slli	a5,a5,0xc
    80202a30:	96be                	add	a3,a3,a5
  asm volatile("csrw stvec, %0" : : "r" (x));
    80202a32:	10569073          	csrw	stvec,a3

  // set up trapframe values that uservec will need when
  // the process next re-enters the kernel.
  p->trapframe->kernel_satp = r_satp();         // kernel page table
    80202a36:	7138                	ld	a4,96(a0)
  asm volatile("csrr %0, satp" : "=r" (x) );
    80202a38:	180026f3          	csrr	a3,satp
    80202a3c:	e314                	sd	a3,0(a4)
  p->trapframe->kernel_sp = p->kstack + PGSIZE; // process's kernel stack
    80202a3e:	7138                	ld	a4,96(a0)
    80202a40:	6134                	ld	a3,64(a0)
    80202a42:	6585                	lui	a1,0x1
    80202a44:	96ae                	add	a3,a3,a1
    80202a46:	e714                	sd	a3,8(a4)
  p->trapframe->kernel_trap = (uint64)usertrap;
    80202a48:	7138                	ld	a4,96(a0)
    80202a4a:	00000697          	auipc	a3,0x0
    80202a4e:	0f468693          	addi	a3,a3,244 # 80202b3e <usertrap>
    80202a52:	eb14                	sd	a3,16(a4)
  p->trapframe->kernel_hartid = r_tp();         // hartid for cpuid()
    80202a54:	7138                	ld	a4,96(a0)
  asm volatile("mv %0, tp" : "=r" (x) );
    80202a56:	8692                	mv	a3,tp
    80202a58:	f314                	sd	a3,32(a4)
  asm volatile("csrr %0, sstatus" : "=r" (x) );
    80202a5a:	100026f3          	csrr	a3,sstatus
  // set up the registers that trampoline.S's sret will use
  // to get to user space.
  
  // set S Previous Privilege mode to User.
  unsigned long x = r_sstatus();
  x &= ~SSTATUS_SPP; // clear SPP to 0 for user mode
    80202a5e:	eff6f693          	andi	a3,a3,-257
  x |= SSTATUS_SPIE; // enable interrupts in user mode
    80202a62:	0206e693          	ori	a3,a3,32
  asm volatile("csrw sstatus, %0" : : "r" (x));
    80202a66:	10069073          	csrw	sstatus,a3
  w_sstatus(x);

  // set S Exception Program Counter to the saved user pc.
  w_sepc(p->trapframe->epc);
    80202a6a:	7138                	ld	a4,96(a0)
  asm volatile("csrw sepc, %0" : : "r" (x));
    80202a6c:	6f18                	ld	a4,24(a4)
    80202a6e:	14171073          	csrw	sepc,a4

  // tell trampoline.S the user page table to switch to.
  // printf("[usertrapret]p->pagetable: %p\n", p->pagetable);
  uint64 satp = MAKE_SATP(p->pagetable);
    80202a72:	692c                	ld	a1,80(a0)
    80202a74:	81b1                	srli	a1,a1,0xc

  // jump to trampoline.S at the top of memory, which 
  // switches to the user page table, restores user registers,
  // and switches to user mode with sret.
  uint64 fn = TRAMPOLINE + (userret - trampoline);
    80202a76:	0000b717          	auipc	a4,0xb
    80202a7a:	65273703          	ld	a4,1618(a4) # 8020e0c8 <_GLOBAL_OFFSET_TABLE_+0x18>
    80202a7e:	8f11                	sub	a4,a4,a2
    80202a80:	97ba                	add	a5,a5,a4
  ((void (*)(uint64,uint64))fn)(TRAPFRAME, satp);
    80202a82:	577d                	li	a4,-1
    80202a84:	177e                	slli	a4,a4,0x3f
    80202a86:	8dd9                	or	a1,a1,a4
    80202a88:	02000537          	lui	a0,0x2000
    80202a8c:	157d                	addi	a0,a0,-1
    80202a8e:	0536                	slli	a0,a0,0xd
    80202a90:	9782                	jalr	a5
}
    80202a92:	60a2                	ld	ra,8(sp)
    80202a94:	6402                	ld	s0,0(sp)
    80202a96:	0141                	addi	sp,sp,16
    80202a98:	8082                	ret

0000000080202a9a <devintr>:
// Check if it's an external/software interrupt, 
// and handle it. 
// returns  2 if timer interrupt, 
//          1 if other device, 
//          0 if not recognized. 
int devintr(void) {
    80202a9a:	1101                	addi	sp,sp,-32
    80202a9c:	ec06                	sd	ra,24(sp)
    80202a9e:	e822                	sd	s0,16(sp)
    80202aa0:	e426                	sd	s1,8(sp)
    80202aa2:	1000                	addi	s0,sp,32
  asm volatile("csrr %0, scause" : "=r" (x) );
    80202aa4:	14202773          	csrr	a4,scause
	uint64 scause = r_scause();

	#ifdef QEMU 
	// handle external interrupt 
	if ((0x8000000000000000L & scause) && 9 == (scause & 0xff)) 
    80202aa8:	00074d63          	bltz	a4,80202ac2 <devintr+0x28>
		sbi_set_mie();
		#endif 

		return 1;
	}
	else if (0x8000000000000005L == scause) {
    80202aac:	57fd                	li	a5,-1
    80202aae:	17fe                	slli	a5,a5,0x3f
    80202ab0:	0795                	addi	a5,a5,5
		timer_tick();
		return 2;
	}
	else { return 0;}
    80202ab2:	4501                	li	a0,0
	else if (0x8000000000000005L == scause) {
    80202ab4:	06f70f63          	beq	a4,a5,80202b32 <devintr+0x98>
}
    80202ab8:	60e2                	ld	ra,24(sp)
    80202aba:	6442                	ld	s0,16(sp)
    80202abc:	64a2                	ld	s1,8(sp)
    80202abe:	6105                	addi	sp,sp,32
    80202ac0:	8082                	ret
	if ((0x8000000000000000L & scause) && 9 == (scause & 0xff)) 
    80202ac2:	0ff77793          	andi	a5,a4,255
    80202ac6:	46a5                	li	a3,9
    80202ac8:	fed792e3          	bne	a5,a3,80202aac <devintr+0x12>
		int irq = plic_claim();
    80202acc:	00005097          	auipc	ra,0x5
    80202ad0:	406080e7          	jalr	1030(ra) # 80207ed2 <plic_claim>
    80202ad4:	84aa                	mv	s1,a0
		if (UART_IRQ == irq) {
    80202ad6:	47a9                	li	a5,10
    80202ad8:	02f50163          	beq	a0,a5,80202afa <devintr+0x60>
		else if (DISK_IRQ == irq) {
    80202adc:	4785                	li	a5,1
    80202ade:	04f50563          	beq	a0,a5,80202b28 <devintr+0x8e>
		return 1;
    80202ae2:	4505                	li	a0,1
		else if (irq) {
    80202ae4:	d8f1                	beqz	s1,80202ab8 <devintr+0x1e>
			printf("unexpected interrupt irq = %d\n", irq);
    80202ae6:	85a6                	mv	a1,s1
    80202ae8:	00008517          	auipc	a0,0x8
    80202aec:	c4850513          	addi	a0,a0,-952 # 8020a730 <digits+0x3b0>
    80202af0:	ffffd097          	auipc	ra,0xffffd
    80202af4:	69c080e7          	jalr	1692(ra) # 8020018c <printf>
    80202af8:	a821                	j	80202b10 <devintr+0x76>
	return SBI_CALL_0(SBI_CONSOLE_GETCHAR);
    80202afa:	4501                	li	a0,0
    80202afc:	4581                	li	a1,0
    80202afe:	4601                	li	a2,0
    80202b00:	4681                	li	a3,0
    80202b02:	4889                	li	a7,2
    80202b04:	00000073          	ecall
    80202b08:	2501                	sext.w	a0,a0
			if (-1 != c) {
    80202b0a:	57fd                	li	a5,-1
    80202b0c:	00f51963          	bne	a0,a5,80202b1e <devintr+0x84>
		if (irq) { plic_complete(irq);}
    80202b10:	8526                	mv	a0,s1
    80202b12:	00005097          	auipc	ra,0x5
    80202b16:	3ea080e7          	jalr	1002(ra) # 80207efc <plic_complete>
		return 1;
    80202b1a:	4505                	li	a0,1
    80202b1c:	bf71                	j	80202ab8 <devintr+0x1e>
				consoleintr(c);
    80202b1e:	00005097          	auipc	ra,0x5
    80202b22:	5f6080e7          	jalr	1526(ra) # 80208114 <consoleintr>
    80202b26:	b7ed                	j	80202b10 <devintr+0x76>
			disk_intr();
    80202b28:	00004097          	auipc	ra,0x4
    80202b2c:	9be080e7          	jalr	-1602(ra) # 802064e6 <disk_intr>
    80202b30:	b7c5                	j	80202b10 <devintr+0x76>
		timer_tick();
    80202b32:	00004097          	auipc	ra,0x4
    80202b36:	91a080e7          	jalr	-1766(ra) # 8020644c <timer_tick>
		return 2;
    80202b3a:	4509                	li	a0,2
    80202b3c:	bfb5                	j	80202ab8 <devintr+0x1e>

0000000080202b3e <usertrap>:
{
    80202b3e:	7179                	addi	sp,sp,-48
    80202b40:	f406                	sd	ra,40(sp)
    80202b42:	f022                	sd	s0,32(sp)
    80202b44:	ec26                	sd	s1,24(sp)
    80202b46:	e84a                	sd	s2,16(sp)
    80202b48:	e44e                	sd	s3,8(sp)
    80202b4a:	1800                	addi	s0,sp,48
  asm volatile("csrr %0, sstatus" : "=r" (x) );
    80202b4c:	100027f3          	csrr	a5,sstatus
  if((r_sstatus() & SSTATUS_SPP) != 0)
    80202b50:	1007f793          	andi	a5,a5,256
    80202b54:	e3a9                	bnez	a5,80202b96 <usertrap+0x58>
  asm volatile("csrw stvec, %0" : : "r" (x));
    80202b56:	0000b797          	auipc	a5,0xb
    80202b5a:	57a7b783          	ld	a5,1402(a5) # 8020e0d0 <_GLOBAL_OFFSET_TABLE_+0x20>
    80202b5e:	10579073          	csrw	stvec,a5
  struct proc *p = myproc();
    80202b62:	fffff097          	auipc	ra,0xfffff
    80202b66:	efe080e7          	jalr	-258(ra) # 80201a60 <myproc>
    80202b6a:	84aa                	mv	s1,a0
  p->trapframe->epc = r_sepc();
    80202b6c:	713c                	ld	a5,96(a0)
  asm volatile("csrr %0, sepc" : "=r" (x) );
    80202b6e:	14102773          	csrr	a4,sepc
    80202b72:	ef98                	sd	a4,24(a5)
  asm volatile("csrr %0, scause" : "=r" (x) );
